Archive member included because of file (symbol)

../common/lib/libsymm_mpc8313_PtpGpsSe.a(sc_chan_gps.o)
                              ../common/user_if/sc_ui_gps.o (SC_ChanSwtMode)
../common/lib/libsymm_mpc8313_PtpGpsSe.a(sc_alarms_gps.o)
                              ../common/lib/libsymm_mpc8313_PtpGpsSe.a(sc_chan_gps.o) (sc_alarm_lst)
../common/lib/libsymm_mpc8313_PtpGpsSe.a(CLK_gps.o)
                              ../common/lib/libsymm_mpc8313_PtpGpsSe.a(sc_chan_gps.o) (Get_servoAccept)
../common/lib/libsymm_mpc8313_PtpGpsSe.a(clk_ana_gps.o)
                              ../common/lib/libsymm_mpc8313_PtpGpsSe.a(CLK_gps.o) (fll_status_1min)
../common/lib/libsymm_mpc8313_PtpGpsSe.a(clk_acq_gps.o)
                              ../common/lib/libsymm_mpc8313_PtpGpsSe.a(CLK_gps.o) (min_detilt)
../common/lib/libsymm_mpc8313_PtpGpsSe.a(clk_input_gps.o)
                              ../common/lib/libsymm_mpc8313_PtpGpsSe.a(CLK_gps.o) (set_update_phy_flag)
../common/lib/libsymm_mpc8313_PtpGpsSe.a(clk_main_gps.o)
                              ../common/lib/libsymm_mpc8313_PtpGpsSe.a(CLK_gps.o) (jam_now_flag)
../common/lib/libsymm_mpc8313_PtpGpsSe.a(sc_ptp_servo_gps.o)
                              ../common/lib/libsymm_mpc8313_PtpGpsSe.a(CLK_gps.o) (kOscOffsetLimit)
../common/lib/libsymm_mpc8313_PtpGpsSe.a(sc_system_gps.o)
                              ../common/config_if/sc_readconfig_gps.o (SC_InitPtpConfig)
../common/lib/libsymm_mpc8313_PtpGpsSe.a(DBG_gps.o)
                              ../common/user_if/sc_ui_gps.o (SC_DbgConfig)
../common/lib/libsymm_mpc8313_PtpGpsSe.a(sc_mnt_gps.o)
                              ../common/lib/libsymm_mpc8313_PtpGpsSe.a(sc_system_gps.o) (SC_InitMnt)
../common/lib/libsymm_mpc8313_PtpGpsSe.a(THD_gps.o)
                              ../common/lib/libsymm_mpc8313_PtpGpsSe.a(sc_system_gps.o) (THD_InitTimeRes)
../common/lib/libsymm_mpc8313_PtpGpsSe.a(sc_gps.o)
                              ../common/user_if/sc_ui_gps.o (SC_GpsStat)
../common/lib/libsymm_mpc8313_PtpGpsSe.a(GPS.o)
                              ../common/lib/libsymm_mpc8313_PtpGpsSe.a(sc_system_gps.o) (GPS_Init)
../common/lib/libsymm_mpc8313_PtpGpsSe.a(SE.o)
                              ../common/lib/libsymm_mpc8313_PtpGpsSe.a(sc_system_gps.o) (SE_Init)
../common/lib/libsymm_mpc8313_PtpGpsSe.a(PTP_gps.o)
                              ../common/lib/libsymm_mpc8313_PtpGpsSe.a(sc_system_gps.o) (PTP_Init)
../common/lib/libsymm_mpc8313_PtpGpsSe.a(CTLmain_gps.o)
                              ../common/lib/libsymm_mpc8313_PtpGpsSe.a(sc_mnt_gps.o) (CTL_s_comIf)
../common/lib/libsymm_mpc8313_PtpGpsSe.a(CTLflt_gps.o)
                              ../common/lib/libsymm_mpc8313_PtpGpsSe.a(PTP_gps.o) (CTLflt_Init)
../common/lib/libsymm_mpc8313_PtpGpsSe.a(CTLds_gps.o)
                              ../common/lib/libsymm_mpc8313_PtpGpsSe.a(CTLmain_gps.o) (CTL_InitClockDS)
../common/lib/libsymm_mpc8313_PtpGpsSe.a(CLKflt_gps.o)
                              ../common/lib/libsymm_mpc8313_PtpGpsSe.a(CTLflt_gps.o) (SC_ClkFltInit)
../common/lib/libsymm_mpc8313_PtpGpsSe.a(SLVdel_gps.o)
                              ../common/lib/libsymm_mpc8313_PtpGpsSe.a(CTLmain_gps.o) (SLV_SetDelReqInt)
../common/lib/libsymm_mpc8313_PtpGpsSe.a(SLVdel_queue_gps.o)
                              ../common/lib/libsymm_mpc8313_PtpGpsSe.a(SLVdel_gps.o) (Put_Delay_Timestamp)
../common/lib/libsymm_mpc8313_PtpGpsSe.a(SLVsyn_gps.o)
                              ../common/lib/libsymm_mpc8313_PtpGpsSe.a(CTLmain_gps.o) (SLV_SetSyncInt)
../common/lib/libsymm_mpc8313_PtpGpsSe.a(SLVmain_gps.o)
                              ../common/lib/libsymm_mpc8313_PtpGpsSe.a(SLVdel_gps.o) (SLV_as_portId)
../common/lib/libsymm_mpc8313_PtpGpsSe.a(MNTmain_gps.o)
                              ../common/lib/libsymm_mpc8313_PtpGpsSe.a(CTLmain_gps.o) (MNT_Init)
../common/lib/libsymm_mpc8313_PtpGpsSe.a(MNTapi_gps.o)
                              ../common/lib/libsymm_mpc8313_PtpGpsSe.a(sc_mnt_gps.o) (MNTapi_ClkDesc)
../common/lib/libsymm_mpc8313_PtpGpsSe.a(MNTmsg_gps.o)
                              ../common/lib/libsymm_mpc8313_PtpGpsSe.a(MNTmain_gps.o) (MNTmsg_HandleGet)
../common/lib/libsymm_mpc8313_PtpGpsSe.a(NIFmain_gps.o)
                              ../common/lib/libsymm_mpc8313_PtpGpsSe.a(CTLmain_gps.o) (NIF_Init)
../common/lib/libsymm_mpc8313_PtpGpsSe.a(NIFtx_gps.o)
                              ../common/lib/libsymm_mpc8313_PtpGpsSe.a(CTLmain_gps.o) (NIF_Set_PTP_subdomain)
../common/lib/libsymm_mpc8313_PtpGpsSe.a(UCMmain_gps.o)
                              ../common/lib/libsymm_mpc8313_PtpGpsSe.a(CTLmain_gps.o) (UCM_Init)
../common/lib/libsymm_mpc8313_PtpGpsSe.a(DISmain_gps.o)
                              ../common/lib/libsymm_mpc8313_PtpGpsSe.a(CTLmain_gps.o) (DIS_Init)
../common/lib/libsymm_mpc8313_PtpGpsSe.a(DISnet_gps.o)
                              ../common/lib/libsymm_mpc8313_PtpGpsSe.a(CTLmain_gps.o) (DISnet_Init)
../common/lib/libsymm_mpc8313_PtpGpsSe.a(DISrx_gps.o)
                              ../common/lib/libsymm_mpc8313_PtpGpsSe.a(DISmain_gps.o) (DIS_DispEvntMsg)
../common/lib/libsymm_mpc8313_PtpGpsSe.a(DIStx_gps.o)
                              ../common/lib/libsymm_mpc8313_PtpGpsSe.a(DISnet_gps.o) (DIS_as_outbLat)
../common/lib/libsymm_mpc8313_PtpGpsSe.a(MSTmain_gps.o)
                              ../common/lib/libsymm_mpc8313_PtpGpsSe.a(CTLmain_gps.o) (MST_Init)
../common/lib/libsymm_mpc8313_PtpGpsSe.a(MSTsyn_gps.o)
                              ../common/lib/libsymm_mpc8313_PtpGpsSe.a(CTLmain_gps.o) (MST_SetSyncInt)
../common/lib/libsymm_mpc8313_PtpGpsSe.a(MSTannc_gps.o)
                              ../common/lib/libsymm_mpc8313_PtpGpsSe.a(CTLmain_gps.o) (MST_SetAnncInt)
../common/lib/libsymm_mpc8313_PtpGpsSe.a(CIFmain_gps.o)
                              ../common/lib/libsymm_mpc8313_PtpGpsSe.a(CTLmain_gps.o) (CIF_Init)
../common/lib/libsymm_mpc8313_PtpGpsSe.a(TSUmain_gps.o)
                              ../common/lib/libsymm_mpc8313_PtpGpsSe.a(CTLmain_gps.o) (TSU_Init)
../common/lib/libsymm_mpc8313_PtpGpsSe.a(FIO_gps.o)
                              ../common/lib/libsymm_mpc8313_PtpGpsSe.a(MNTmsg_gps.o) (FIO_InitCfgDflt)
../common/lib/libsymm_mpc8313_PtpGpsSe.a(FIOerr_gps.o)
                              ../common/lib/libsymm_mpc8313_PtpGpsSe.a(PTP_gps.o) (FIO_GetErrStr)
../common/lib/libsymm_mpc8313_PtpGpsSe.a(FLTno_gps.o)
                              ../common/lib/libsymm_mpc8313_PtpGpsSe.a(CTLflt_gps.o) (FLTno_Init)
../common/lib/libsymm_mpc8313_PtpGpsSe.a(tod_gps.o)
                              ../common/lib/libsymm_mpc8313_PtpGpsSe.a(THD_gps.o) (GenerateTimecode)
../common/lib/libsymm_mpc8313_PtpGpsSe.a(TGT_gps.o)
                              ../common/lib/libsymm_mpc8313_PtpGpsSe.a(CTLmain_gps.o) (TGT_Init)
../common/lib/libsymm_mpc8313_PtpGpsSe.a(SISmpool_gps.o)
                              ../common/lib/libsymm_mpc8313_PtpGpsSe.a(PTP_gps.o) (SIS_Alloc)
../common/lib/libsymm_mpc8313_PtpGpsSe.a(SISmain_gps.o)
                              ../common/lib/libsymm_mpc8313_PtpGpsSe.a(CTLmain_gps.o) (SIS_Init)
../common/lib/libsymm_mpc8313_PtpGpsSe.a(SISevent_gps.o)
                              ../common/lib/libsymm_mpc8313_PtpGpsSe.a(SISmain_gps.o) (SIS_EventInit)
../common/lib/libsymm_mpc8313_PtpGpsSe.a(SISmbox_gps.o)
                              ../common/lib/libsymm_mpc8313_PtpGpsSe.a(SISmain_gps.o) (SIS_MboxInit)
../common/lib/libsymm_mpc8313_PtpGpsSe.a(GOE_gps.o)
                              ../common/lib/libsymm_mpc8313_PtpGpsSe.a(CTLmain_gps.o) (GOE_ntoh16)
../common/lib/libsymm_mpc8313_PtpGpsSe.a(GN_GPS_Task.o)
                              ../common/lib/libsymm_mpc8313_PtpGpsSe.a(GPS.o) (GN_GPS_Task_Start)
../common/lib/libsymm_mpc8313_PtpGpsSe.a(UCDmain_gps.o)
                              ../common/lib/libsymm_mpc8313_PtpGpsSe.a(CTLmain_gps.o) (UCD_Init)
../common/lib/libsymm_mpc8313_PtpGpsSe.a(PTPmath_gps.o)
                              ../common/lib/libsymm_mpc8313_PtpGpsSe.a(SLVdel_gps.o) (PTP_SubtrTmStmpTmStmp)
../common/lib/libsymm_mpc8313_PtpGpsSe.a(CTLbmc_gps.o)
                              ../common/lib/libsymm_mpc8313_PtpGpsSe.a(CTLmain_gps.o) (CTL_StateDecisionEvent)
../common/lib/libsymm_mpc8313_PtpGpsSe.a(MNTget_gps.o)
                              ../common/lib/libsymm_mpc8313_PtpGpsSe.a(MNTmsg_gps.o) (ab_RespTlvPld)
../common/lib/libsymm_mpc8313_PtpGpsSe.a(NIFrx_gps.o)
                              ../common/lib/libsymm_mpc8313_PtpGpsSe.a(DISmain_gps.o) (NIF_RecvMsg)
../common/lib/libsymm_mpc8313_PtpGpsSe.a(UCMannc_gps.o)
                              ../common/lib/libsymm_mpc8313_PtpGpsSe.a(SISmain_gps.o) (UCMann_Task)
../common/lib/libsymm_mpc8313_PtpGpsSe.a(UCMsyn_gps.o)
                              ../common/lib/libsymm_mpc8313_PtpGpsSe.a(SISmain_gps.o) (UCMsyn_Task)
../common/lib/libsymm_mpc8313_PtpGpsSe.a(UCMdel_gps.o)
                              ../common/lib/libsymm_mpc8313_PtpGpsSe.a(SISmain_gps.o) (UCMdel_Task)
../common/lib/libsymm_mpc8313_PtpGpsSe.a(MSTdel_gps.o)
                              ../common/lib/libsymm_mpc8313_PtpGpsSe.a(SISmain_gps.o) (MSTdel_Task)
../common/lib/libsymm_mpc8313_PtpGpsSe.a(sc_ptp_mgmt_gps.o)
                              ../common/lib/libsymm_mpc8313_PtpGpsSe.a(MNTget_gps.o) (SC_GetPrivateStatus)
../common/lib/libsymm_mpc8313_PtpGpsSe.a(sc_util_gps.o)
                              ../common/lib/libsymm_mpc8313_PtpGpsSe.a(sc_ptp_mgmt_gps.o) (SC_TimeToDate)
/opt/sourcery-arm-201203/bin/../lib/gcc/arm-none-linux-gnueabi/4.6.3/libgcc.a(_udivsi3.o)
                              ../common/lib/libsymm_mpc8313_PtpGpsSe.a(THD_gps.o) (__aeabi_uidiv)
/opt/sourcery-arm-201203/bin/../lib/gcc/arm-none-linux-gnueabi/4.6.3/libgcc.a(_divsi3.o)
                              ../common/lib/libsymm_mpc8313_PtpGpsSe.a(CLK_gps.o) (__aeabi_idiv)
/opt/sourcery-arm-201203/bin/../lib/gcc/arm-none-linux-gnueabi/4.6.3/libgcc.a(_arm_addsubdf3.o)
                              ./clock_if/sc_clock_if_gps.o (__aeabi_dsub)
/opt/sourcery-arm-201203/bin/../lib/gcc/arm-none-linux-gnueabi/4.6.3/libgcc.a(_arm_muldivdf3.o)
                              ./clock_if/sc_clock_if_gps.o (__aeabi_dmul)
/opt/sourcery-arm-201203/bin/../lib/gcc/arm-none-linux-gnueabi/4.6.3/libgcc.a(_arm_cmpdf2.o)
                              ../common/lib/libsymm_mpc8313_PtpGpsSe.a(CLK_gps.o) (__aeabi_dcmpeq)
/opt/sourcery-arm-201203/bin/../lib/gcc/arm-none-linux-gnueabi/4.6.3/libgcc.a(_arm_fixdfsi.o)
                              ./clock_if/sc_clock_if_gps.o (__aeabi_d2iz)
/opt/sourcery-arm-201203/bin/../lib/gcc/arm-none-linux-gnueabi/4.6.3/libgcc.a(_arm_fixunsdfsi.o)
                              ../common/lib/libsymm_mpc8313_PtpGpsSe.a(sc_ptp_servo_gps.o) (__aeabi_d2uiz)
/opt/sourcery-arm-201203/bin/../lib/gcc/arm-none-linux-gnueabi/4.6.3/libgcc.a(_arm_truncdfsf2.o)
                              ../common/lib/libsymm_mpc8313_PtpGpsSe.a(CLK_gps.o) (__aeabi_d2f)
/opt/sourcery-arm-201203/bin/../lib/gcc/arm-none-linux-gnueabi/4.6.3/libgcc.a(_arm_cmpsf2.o)
                              ../common/lib/libsymm_mpc8313_PtpGpsSe.a(sc_ptp_servo_gps.o) (__aeabi_fcmpgt)
/opt/sourcery-arm-201203/bin/../lib/gcc/arm-none-linux-gnueabi/4.6.3/libgcc.a(_aeabi_ldivmod.o)
                              ../common/lib/libsymm_mpc8313_PtpGpsSe.a(clk_input_gps.o) (__aeabi_ldivmod)
/opt/sourcery-arm-201203/bin/../lib/gcc/arm-none-linux-gnueabi/4.6.3/libgcc.a(_aeabi_uldivmod.o)
                              ../common/lib/libsymm_mpc8313_PtpGpsSe.a(THD_gps.o) (__aeabi_uldivmod)
/opt/sourcery-arm-201203/bin/../lib/gcc/arm-none-linux-gnueabi/4.6.3/libgcc.a(_dvmd_lnx.o)
                              /opt/sourcery-arm-201203/bin/../lib/gcc/arm-none-linux-gnueabi/4.6.3/libgcc.a(_udivsi3.o) (__aeabi_idiv0)
/opt/sourcery-arm-201203/bin/../lib/gcc/arm-none-linux-gnueabi/4.6.3/libgcc.a(_fixdfdi.o)
                              ../common/lib/libsymm_mpc8313_PtpGpsSe.a(CLK_gps.o) (__aeabi_d2lz)
/opt/sourcery-arm-201203/bin/../lib/gcc/arm-none-linux-gnueabi/4.6.3/libgcc.a(_fixunsdfdi.o)
                              /opt/sourcery-arm-201203/bin/../lib/gcc/arm-none-linux-gnueabi/4.6.3/libgcc.a(_fixdfdi.o) (__aeabi_d2ulz)
/opt/sourcery-arm-201203/bin/../lib/gcc/arm-none-linux-gnueabi/4.6.3/libgcc.a(bpabi.o)
                              /opt/sourcery-arm-201203/bin/../lib/gcc/arm-none-linux-gnueabi/4.6.3/libgcc.a(_aeabi_ldivmod.o) (__gnu_ldivmod_helper)
/opt/sourcery-arm-201203/bin/../lib/gcc/arm-none-linux-gnueabi/4.6.3/libgcc.a(_divdi3.o)
                              /opt/sourcery-arm-201203/bin/../lib/gcc/arm-none-linux-gnueabi/4.6.3/libgcc.a(bpabi.o) (__divdi3)
/opt/sourcery-arm-201203/bin/../lib/gcc/arm-none-linux-gnueabi/4.6.3/libgcc.a(_udivdi3.o)
                              /opt/sourcery-arm-201203/bin/../lib/gcc/arm-none-linux-gnueabi/4.6.3/libgcc.a(bpabi.o) (__udivdi3)
/opt/sourcery-arm-201203/bin/../arm-none-linux-gnueabi/libc/usr/lib/libc_nonshared.a(elf-init.oS)
                              /opt/sourcery-arm-201203/bin/../arm-none-linux-gnueabi/libc/usr/lib/crt1.o (__libc_csu_init)

Allocating common symbols
Common symbol       size              file

GPS_C_Fifo_Local    0x228             ../common/lib/libsymm_mpc8313_PtpGpsSe.a(CLK_gps.o)
Sync_Out_Indx       0x2               ../common/lib/libsymm_mpc8313_PtpGpsSe.a(CLK_gps.o)
RFE_PHY             0x18b0            ../common/lib/libsymm_mpc8313_PtpGpsSe.a(clk_main_gps.o)
DIS_dw_poll_tmo     0x4               ../common/lib/libsymm_mpc8313_PtpGpsSe.a(DISmain_gps.o)
avg_GPS_D           0x4               ../common/lib/libsymm_mpc8313_PtpGpsSe.a(clk_main_gps.o)
stilt               0x4               ../common/lib/libsymm_mpc8313_PtpGpsSe.a(clk_acq_gps.o)
fbias_large         0x8               ../common/lib/libsymm_mpc8313_PtpGpsSe.a(clk_main_gps.o)
wpairs_phy          0x400             ../common/lib/libsymm_mpc8313_PtpGpsSe.a(clk_ana_gps.o)
CTL_aw_Hdl_mas      0x2               ../common/lib/libsymm_mpc8313_PtpGpsSe.a(CTLmain_gps.o)
Delay_Out_Indx      0x2               ../common/lib/libsymm_mpc8313_PtpGpsSe.a(CLK_gps.o)
ofw_start_thres_r   0x4               ../common/lib/libsymm_mpc8313_PtpGpsSe.a(clk_main_gps.o)
rbias               0x8               ../common/lib/libsymm_mpc8313_PtpGpsSe.a(clk_main_gps.o)
rfe_ppindx          0x2               ../common/lib/libsymm_mpc8313_PtpGpsSe.a(clk_main_gps.o)
min_detilt          0x8               ../common/lib/libsymm_mpc8313_PtpGpsSe.a(clk_acq_gps.o)
gps_pc              0x28              ../common/lib/libsymm_mpc8313_PtpGpsSe.a(clk_main_gps.o)
rfe_turbo_phase_large_band
                    0x10              ../common/lib/libsymm_mpc8313_PtpGpsSe.a(clk_main_gps.o)
ofw_start_thres_f   0x4               ../common/lib/libsymm_mpc8313_PtpGpsSe.a(clk_main_gps.o)
rmf_r               0x4               ../common/lib/libsymm_mpc8313_PtpGpsSe.a(clk_main_gps.o)
rmi_f               0x4               ../common/lib/libsymm_mpc8313_PtpGpsSe.a(clk_main_gps.o)
rmi_r               0x4               ../common/lib/libsymm_mpc8313_PtpGpsSe.a(clk_main_gps.o)
Phase_Control_Enable
                    0x1               ../common/lib/libsymm_mpc8313_PtpGpsSe.a(clk_main_gps.o)
rmf_f               0x4               ../common/lib/libsymm_mpc8313_PtpGpsSe.a(clk_main_gps.o)
RFE_in_forward      0x28              ../common/lib/libsymm_mpc8313_PtpGpsSe.a(clk_main_gps.o)
rmw_f               0x1004            ../common/lib/libsymm_mpc8313_PtpGpsSe.a(clk_main_gps.o)
ofw_cluster_iter_r  0x4               ../common/lib/libsymm_mpc8313_PtpGpsSe.a(clk_main_gps.o)
rmw_r               0x1004            ../common/lib/libsymm_mpc8313_PtpGpsSe.a(clk_main_gps.o)
hprev_f             0x8               ../common/lib/libsymm_mpc8313_PtpGpsSe.a(CLK_gps.o)
UCM_as_pId          0xa               ../common/lib/libsymm_mpc8313_PtpGpsSe.a(UCMmain_gps.o)
TGT_o_stmd          0x1               ../common/lib/libsymm_mpc8313_PtpGpsSe.a(TGT_gps.o)
ofw_cluster_total_sum_f
                    0x4               ../common/lib/libsymm_mpc8313_PtpGpsSe.a(clk_main_gps.o)
time_bias_est_rate  0x8               ../common/lib/libsymm_mpc8313_PtpGpsSe.a(clk_main_gps.o)
next_ofw_cluster_total_r
                    0x4               ../common/lib/libsymm_mpc8313_PtpGpsSe.a(clk_main_gps.o)
ptpTransport        0x4               ../common/lib/libsymm_mpc8313_PtpGpsSe.a(clk_main_gps.o)
PTP_Seq_Num_curr    0x2               ../common/lib/libsymm_mpc8313_PtpGpsSe.a(CLK_gps.o)
w_numTblEntries     0x2               ../common/lib/libsymm_mpc8313_PtpGpsSe.a(MNTmain_gps.o)
delta_reverse_slew  0x2               ../common/lib/libsymm_mpc8313_PtpGpsSe.a(clk_main_gps.o)
next_ofw_cluster_total_f
                    0x4               ../common/lib/libsymm_mpc8313_PtpGpsSe.a(clk_main_gps.o)
SYNCE_B_Fifo_Local  0x228             ../common/lib/libsymm_mpc8313_PtpGpsSe.a(CLK_gps.o)
RFE_in_reverse      0x28              ../common/lib/libsymm_mpc8313_PtpGpsSe.a(clk_main_gps.o)
CTL_s_ClkDS         0x2b0             ../common/lib/libsymm_mpc8313_PtpGpsSe.a(CTLmain_gps.o)
MNT_as_pId          0xa               ../common/lib/libsymm_mpc8313_PtpGpsSe.a(MNTmain_gps.o)
avg_RED             0x4               ../common/lib/libsymm_mpc8313_PtpGpsSe.a(clk_main_gps.o)
ofw_cluster_total_sum_r
                    0x4               ../common/lib/libsymm_mpc8313_PtpGpsSe.a(clk_main_gps.o)
rfe_pindx           0x2               ../common/lib/libsymm_mpc8313_PtpGpsSe.a(clk_main_gps.o)
fllstatus           0x128             ../common/lib/libsymm_mpc8313_PtpGpsSe.a(clk_main_gps.o)
se_pb               0x28              ../common/lib/libsymm_mpc8313_PtpGpsSe.a(clk_main_gps.o)
rfe_turbo_phase_avg_large_band
                    0x10              ../common/lib/libsymm_mpc8313_PtpGpsSe.a(clk_main_gps.o)
GPS_D_Fifo_Local    0x228             ../common/lib/libsymm_mpc8313_PtpGpsSe.a(CLK_gps.o)
ofw_cluster_total_sum_prev_r
                    0x4               ../common/lib/libsymm_mpc8313_PtpGpsSe.a(clk_main_gps.o)
fpairs              0x40              ../common/lib/libsymm_mpc8313_PtpGpsSe.a(clk_ana_gps.o)
forward_stats       0x28              ../common/lib/libsymm_mpc8313_PtpGpsSe.a(clk_main_gps.o)
rfe_turbo_phase_phy
                    0x38              ../common/lib/libsymm_mpc8313_PtpGpsSe.a(clk_main_gps.o)
floor_density_small_f
                    0x8               ../common/lib/libsymm_mpc8313_PtpGpsSe.a(clk_main_gps.o)
nfreq_reverse       0x8               ../common/lib/libsymm_mpc8313_PtpGpsSe.a(CLK_gps.o)
red_pa              0x28              ../common/lib/libsymm_mpc8313_PtpGpsSe.a(clk_main_gps.o)
GPS_A_Fifo_Local    0x228             ../common/lib/libsymm_mpc8313_PtpGpsSe.a(CLK_gps.o)
ofw_cluster_total_f
                    0x4               ../common/lib/libsymm_mpc8313_PtpGpsSe.a(clk_main_gps.o)
stemp               0x4               ../common/lib/libsymm_mpc8313_PtpGpsSe.a(clk_acq_gps.o)
rfe_findx           0x2               ../common/lib/libsymm_mpc8313_PtpGpsSe.a(clk_main_gps.o)
ofw_cluster_total_r
                    0x4               ../common/lib/libsymm_mpc8313_PtpGpsSe.a(clk_main_gps.o)
CTL_aw_Hdl_mad      0x2               ../common/lib/libsymm_mpc8313_PtpGpsSe.a(CTLmain_gps.o)
avg_GPS_C           0x4               ../common/lib/libsymm_mpc8313_PtpGpsSe.a(clk_main_gps.o)
rfe_turbo_phase_large
                    0x10              ../common/lib/libsymm_mpc8313_PtpGpsSe.a(clk_main_gps.o)
reverse_weight      0x8               ../common/lib/libsymm_mpc8313_PtpGpsSe.a(clk_main_gps.o)
GPS_B_Fifo_Local    0x228             ../common/lib/libsymm_mpc8313_PtpGpsSe.a(CLK_gps.o)
RFE                 0x870             ../common/lib/libsymm_mpc8313_PtpGpsSe.a(clk_main_gps.o)
floor_density_small_r
                    0x8               ../common/lib/libsymm_mpc8313_PtpGpsSe.a(clk_main_gps.o)
UCD_as_portId       0xa               ../common/lib/libsymm_mpc8313_PtpGpsSe.a(UCDmain_gps.o)
MNT_dw_amntNetIf    0x4               ../common/lib/libsymm_mpc8313_PtpGpsSe.a(MNTmain_gps.o)
wpairs              0x40              ../common/lib/libsymm_mpc8313_PtpGpsSe.a(clk_ana_gps.o)
NIF_aab_FlwupMsg    0x2c              ../common/lib/libsymm_mpc8313_PtpGpsSe.a(NIFtx_gps.o)
time_bias_mean      0x8               ../common/lib/libsymm_mpc8313_PtpGpsSe.a(clk_main_gps.o)
SLV_as_portId       0xa               ../common/lib/libsymm_mpc8313_PtpGpsSe.a(SLVmain_gps.o)
gaptime             0x4               ../common/lib/libsymm_mpc8313_PtpGpsSe.a(clk_main_gps.o)
gps_pb              0x28              ../common/lib/libsymm_mpc8313_PtpGpsSe.a(clk_main_gps.o)
mflag_r             0x4               ../common/lib/libsymm_mpc8313_PtpGpsSe.a(clk_main_gps.o)
DIS_as_inbLat       0x8               ../common/lib/libsymm_mpc8313_PtpGpsSe.a(DISmain_gps.o)
mflag_f             0x4               ../common/lib/libsymm_mpc8313_PtpGpsSe.a(clk_main_gps.o)
ztie_stats          0x3e8             ../common/lib/libsymm_mpc8313_PtpGpsSe.a(clk_main_gps.o)
holdover_r          0x8               ../common/lib/libsymm_mpc8313_PtpGpsSe.a(clk_main_gps.o)
DIS_aw_MboxHdl_mas  0x2               ../common/lib/libsymm_mpc8313_PtpGpsSe.a(DISmain_gps.o)
NIF_aab_SyncMsg     0x7c              ../common/lib/libsymm_mpc8313_PtpGpsSe.a(NIFtx_gps.o)
gs_timeCode         0x14              ../common/user_if/sc_ui_gps.o
rfe_turbo_phase_acc_small
                    0x10              ../common/lib/libsymm_mpc8313_PtpGpsSe.a(clk_main_gps.o)
rfe_settle_count    0x4               ../common/lib/libsymm_mpc8313_PtpGpsSe.a(clk_main_gps.o)
rbias_small         0x8               ../common/lib/libsymm_mpc8313_PtpGpsSe.a(clk_main_gps.o)
TGT_o_owd           0x1               ../common/lib/libsymm_mpc8313_PtpGpsSe.a(TGT_gps.o)
PTP_pf_cbErr        0x4               ../common/lib/libsymm_mpc8313_PtpGpsSe.a(PTP_gps.o)
SIS_ab_TaskSts      0x14              ../common/lib/libsymm_mpc8313_PtpGpsSe.a(SISmain_gps.o)
om_f                0x4               ../common/lib/libsymm_mpc8313_PtpGpsSe.a(clk_main_gps.o)
ofw_cluster_total_sum_prev_f
                    0x4               ../common/lib/libsymm_mpc8313_PtpGpsSe.a(clk_main_gps.o)
holdover_f          0x8               ../common/lib/libsymm_mpc8313_PtpGpsSe.a(clk_main_gps.o)
NIF_aab_DlrspMsg    0x36              ../common/lib/libsymm_mpc8313_PtpGpsSe.a(NIFtx_gps.o)
CTL_w_anncTmoExt    0xa               ../common/lib/libsymm_mpc8313_PtpGpsSe.a(CTLmain_gps.o)
ofw_cluster_total_prev_f
                    0x4               ../common/lib/libsymm_mpc8313_PtpGpsSe.a(clk_main_gps.o)
CTL_aw_Hdl_maa      0x2               ../common/lib/libsymm_mpc8313_PtpGpsSe.a(CTLmain_gps.o)
timestamp_head_r_servo
                    0x2               ../common/lib/libsymm_mpc8313_PtpGpsSe.a(clk_main_gps.o)
as_netHandle        0x24              ./timestamper_if/sc_timestamp_gps.o
ofw_cluster_total_prev_r
                    0x4               ../common/lib/libsymm_mpc8313_PtpGpsSe.a(clk_main_gps.o)
PTP_LOS             0x1               ../common/lib/libsymm_mpc8313_PtpGpsSe.a(clk_main_gps.o)
fbias_small         0x8               ../common/lib/libsymm_mpc8313_PtpGpsSe.a(clk_main_gps.o)
TGT_s_mtx           0x18              ../common/lib/libsymm_mpc8313_PtpGpsSe.a(TGT_gps.o)
DIS_dw_MaxPollTmo   0x4               ../common/lib/libsymm_mpc8313_PtpGpsSe.a(DISmain_gps.o)
sdrift_prev         0x4               ../common/lib/libsymm_mpc8313_PtpGpsSe.a(clk_acq_gps.o)
NIF_aab_MntMsg      0x5e2             ../common/lib/libsymm_mpc8313_PtpGpsSe.a(NIFtx_gps.o)
rfe_turbo_phase_small
                    0x10              ../common/lib/libsymm_mpc8313_PtpGpsSe.a(clk_main_gps.o)
CTL_s_comIf         0x10              ../common/lib/libsymm_mpc8313_PtpGpsSe.a(CTLmain_gps.o)
rms                 0x3e              ../common/lib/libsymm_mpc8313_PtpGpsSe.a(clk_main_gps.o)
signaling_announce_ack_flag
                    0x2               ../common/lib/libsymm_mpc8313_PtpGpsSe.a(CLK_gps.o)
ofw_uslew_r         0x4               ../common/lib/libsymm_mpc8313_PtpGpsSe.a(clk_main_gps.o)
residual_time_error
                    0x8               ../common/lib/libsymm_mpc8313_PtpGpsSe.a(clk_main_gps.o)
avg_GPS_B           0x4               ../common/lib/libsymm_mpc8313_PtpGpsSe.a(clk_main_gps.o)
om_r                0x4               ../common/lib/libsymm_mpc8313_PtpGpsSe.a(clk_main_gps.o)
time_transient_flag
                    0x2               ../common/lib/libsymm_mpc8313_PtpGpsSe.a(clk_main_gps.o)
hcount_recovery_rfe_start
                    0x2               ../common/lib/libsymm_mpc8313_PtpGpsSe.a(clk_main_gps.o)
reverse_stats       0x28              ../common/lib/libsymm_mpc8313_PtpGpsSe.a(clk_main_gps.o)
holdover_buffer_f   0x140             ../common/lib/libsymm_mpc8313_PtpGpsSe.a(CLK_gps.o)
holdover_buffer_r   0x140             ../common/lib/libsymm_mpc8313_PtpGpsSe.a(CLK_gps.o)
PTP_Delay_Fifo_Local
                    0x228             ../common/lib/libsymm_mpc8313_PtpGpsSe.a(CLK_gps.o)
time_bias_est       0x8               ../common/lib/libsymm_mpc8313_PtpGpsSe.a(clk_main_gps.o)
PTP_dw_errCount     0x4               ../common/lib/libsymm_mpc8313_PtpGpsSe.a(PTP_gps.o)
ofw_uslew_f         0x4               ../common/lib/libsymm_mpc8313_PtpGpsSe.a(clk_main_gps.o)
rfe_turbo_phase_acc_large
                    0x10              ../common/lib/libsymm_mpc8313_PtpGpsSe.a(clk_main_gps.o)
TGT_o_offs          0x1               ../common/lib/libsymm_mpc8313_PtpGpsSe.a(TGT_gps.o)
NIF_aab_AnncMsg     0x40              ../common/lib/libsymm_mpc8313_PtpGpsSe.a(NIFtx_gps.o)
delta_reverse_slew_cnt
                    0x2               ../common/lib/libsymm_mpc8313_PtpGpsSe.a(clk_main_gps.o)
gps_pa              0x28              ../common/lib/libsymm_mpc8313_PtpGpsSe.a(clk_main_gps.o)
min_reverse         0x8               ../common/lib/libsymm_mpc8313_PtpGpsSe.a(clk_main_gps.o)
forward_weight      0x8               ../common/lib/libsymm_mpc8313_PtpGpsSe.a(clk_main_gps.o)
min_forward         0x8               ../common/lib/libsymm_mpc8313_PtpGpsSe.a(clk_main_gps.o)
RED_Fifo_Local      0x228             ../common/lib/libsymm_mpc8313_PtpGpsSe.a(CLK_gps.o)
hcount_rfe          0x2               ../common/lib/libsymm_mpc8313_PtpGpsSe.a(clk_main_gps.o)
last_good_freq      0x4               ../common/lib/libsymm_mpc8313_PtpGpsSe.a(clk_main_gps.o)
IPD_PHY             0xaf8             ../common/lib/libsymm_mpc8313_PtpGpsSe.a(clk_main_gps.o)
IPD                 0x530             ../common/lib/libsymm_mpc8313_PtpGpsSe.a(clk_main_gps.o)
delay_min_sample    0x18              ../common/lib/libsymm_mpc8313_PtpGpsSe.a(sc_ptp_servo_gps.o)
signaling_delay_ack_flag
                    0x2               ../common/lib/libsymm_mpc8313_PtpGpsSe.a(CLK_gps.o)
floor_density_large_f
                    0x8               ../common/lib/libsymm_mpc8313_PtpGpsSe.a(clk_main_gps.o)
fbias               0x8               ../common/lib/libsymm_mpc8313_PtpGpsSe.a(clk_main_gps.o)
rm_r                0x8               ../common/lib/libsymm_mpc8313_PtpGpsSe.a(clk_main_gps.o)
next_ofw_cluster_total_sum_r
                    0x4               ../common/lib/libsymm_mpc8313_PtpGpsSe.a(clk_main_gps.o)
rm_f                0x8               ../common/lib/libsymm_mpc8313_PtpGpsSe.a(clk_main_gps.o)
rfe_pppindx         0x2               ../common/lib/libsymm_mpc8313_PtpGpsSe.a(clk_main_gps.o)
hcount_recovery_rfe
                    0x2               ../common/lib/libsymm_mpc8313_PtpGpsSe.a(clk_main_gps.o)
floor_density_large_r
                    0x8               ../common/lib/libsymm_mpc8313_PtpGpsSe.a(clk_main_gps.o)
delta_forward_slew_cnt
                    0x2               ../common/lib/libsymm_mpc8313_PtpGpsSe.a(clk_main_gps.o)
MNT_ps_ClkDs        0x4               ../common/lib/libsymm_mpc8313_PtpGpsSe.a(MNTmain_gps.o)
rfe_turbo_phase     0x10              ../common/lib/libsymm_mpc8313_PtpGpsSe.a(clk_main_gps.o)
signaling_sync_ack_flag
                    0x2               ../common/lib/libsymm_mpc8313_PtpGpsSe.a(CLK_gps.o)
MNT_ps_ucMstTbl     0x4               ../common/lib/libsymm_mpc8313_PtpGpsSe.a(MNTmain_gps.o)
s_localDebCfg       0x8               ../common/main_gps.o
sync_min_sample     0x18              ../common/lib/libsymm_mpc8313_PtpGpsSe.a(sc_ptp_servo_gps.o)
nfreq_forward       0x8               ../common/lib/libsymm_mpc8313_PtpGpsSe.a(CLK_gps.o)
s_ucMstTbl          0x14              ../common/lib/libsymm_mpc8313_PtpGpsSe.a(CTLmain_gps.o)
next_ofw_cluster_total_sum_prev_r
                    0x4               ../common/lib/libsymm_mpc8313_PtpGpsSe.a(clk_main_gps.o)
avg_GPS_A           0x4               ../common/lib/libsymm_mpc8313_PtpGpsSe.a(clk_main_gps.o)
next_ofw_cluster_total_sum_f
                    0x4               ../common/lib/libsymm_mpc8313_PtpGpsSe.a(clk_main_gps.o)
xds                 0xf0              ../common/lib/libsymm_mpc8313_PtpGpsSe.a(clk_main_gps.o)
fpairs_phy          0x400             ../common/lib/libsymm_mpc8313_PtpGpsSe.a(clk_ana_gps.o)
Current_Delay_Req_Seq_Num
                    0x2               ../common/lib/libsymm_mpc8313_PtpGpsSe.a(CLK_gps.o)
DIS_as_outbLat      0x8               ../common/lib/libsymm_mpc8313_PtpGpsSe.a(DIStx_gps.o)
next_ofw_cluster_total_sum_prev_f
                    0x4               ../common/lib/libsymm_mpc8313_PtpGpsSe.a(clk_main_gps.o)
gChanAttributesTable
                    0x54              ../common/chan_processing_if/sc_SSM_handling_gps.o
MST_as_pId          0xa               ../common/lib/libsymm_mpc8313_PtpGpsSe.a(MSTmain_gps.o)
floor_density_band_f
                    0x8               ../common/lib/libsymm_mpc8313_PtpGpsSe.a(clk_main_gps.o)
gps_pd              0x28              ../common/lib/libsymm_mpc8313_PtpGpsSe.a(clk_main_gps.o)
SYNCE_A_Fifo_Local  0x228             ../common/lib/libsymm_mpc8313_PtpGpsSe.a(CLK_gps.o)
round_trip_delay_alt
                    0x8               ../common/lib/libsymm_mpc8313_PtpGpsSe.a(clk_main_gps.o)
ofw_cluster_iter_f  0x4               ../common/lib/libsymm_mpc8313_PtpGpsSe.a(clk_main_gps.o)
NIF_dw_secTicks     0x4               ../common/lib/libsymm_mpc8313_PtpGpsSe.a(NIFmain_gps.o)
DIS_aw_MboxHdl_maa  0x2               ../common/lib/libsymm_mpc8313_PtpGpsSe.a(DISmain_gps.o)
floor_density_band_r
                    0x8               ../common/lib/libsymm_mpc8313_PtpGpsSe.a(clk_main_gps.o)
NIF_ps_ClkDs        0x4               ../common/lib/libsymm_mpc8313_PtpGpsSe.a(NIFmain_gps.o)
PTP_Fifo_Local      0x228             ../common/lib/libsymm_mpc8313_PtpGpsSe.a(CLK_gps.o)
rfe_turbo_phase_acc
                    0x10              ../common/lib/libsymm_mpc8313_PtpGpsSe.a(clk_main_gps.o)
TGT_o_mtsd          0x1               ../common/lib/libsymm_mpc8313_PtpGpsSe.a(TGT_gps.o)
sbuf                0x8               ../common/lib/libsymm_mpc8313_PtpGpsSe.a(clk_acq_gps.o)
rbias_large         0x8               ../common/lib/libsymm_mpc8313_PtpGpsSe.a(clk_main_gps.o)
next_ofw_cluster_total_prev_r
                    0x4               ../common/lib/libsymm_mpc8313_PtpGpsSe.a(clk_main_gps.o)
PTP_Seq_Num_prev    0x1               ../common/lib/libsymm_mpc8313_PtpGpsSe.a(CLK_gps.o)
rfe_turbo_phase_avg_large
                    0x10              ../common/lib/libsymm_mpc8313_PtpGpsSe.a(clk_main_gps.o)
ab_RespTlvPld       0x58a             ../common/lib/libsymm_mpc8313_PtpGpsSe.a(MNTget_gps.o)
DIS_s_NetSts        0x8               ../common/lib/libsymm_mpc8313_PtpGpsSe.a(DISmain_gps.o)
NIF_aab_DlrqMsg     0x7c              ../common/lib/libsymm_mpc8313_PtpGpsSe.a(NIFtx_gps.o)
rfe_turbo_phase_acc_phy
                    0x38              ../common/lib/libsymm_mpc8313_PtpGpsSe.a(clk_main_gps.o)
se_pa               0x28              ../common/lib/libsymm_mpc8313_PtpGpsSe.a(clk_main_gps.o)
next_ofw_cluster_total_prev_f
                    0x4               ../common/lib/libsymm_mpc8313_PtpGpsSe.a(clk_main_gps.o)
rfe_turbo_phase_avg_small
                    0x10              ../common/lib/libsymm_mpc8313_PtpGpsSe.a(clk_main_gps.o)
rfe_cindx           0x2               ../common/lib/libsymm_mpc8313_PtpGpsSe.a(clk_main_gps.o)
timestamp_head_f_servo
                    0x2               ../common/lib/libsymm_mpc8313_PtpGpsSe.a(clk_main_gps.o)
rfe_turbo_phase_acc_large_band
                    0x10              ../common/lib/libsymm_mpc8313_PtpGpsSe.a(clk_main_gps.o)
TGT_o_silent        0x1               ../common/lib/libsymm_mpc8313_PtpGpsSe.a(TGT_gps.o)
timestamp_align_skip_servo
                    0x2               ../common/lib/libsymm_mpc8313_PtpGpsSe.a(clk_main_gps.o)
ptpRate             0x2               ../common/lib/libsymm_mpc8313_PtpGpsSe.a(clk_main_gps.o)
rfe_turbo_phase_avg
                    0x10              ../common/lib/libsymm_mpc8313_PtpGpsSe.a(clk_main_gps.o)
delta_forward_slew  0x2               ../common/lib/libsymm_mpc8313_PtpGpsSe.a(clk_main_gps.o)
DIS_aw_MboxHdl_mad  0x2               ../common/lib/libsymm_mpc8313_PtpGpsSe.a(DISmain_gps.o)
floor_density_r     0x8               ../common/lib/libsymm_mpc8313_PtpGpsSe.a(clk_main_gps.o)
rmc_r               0x4               ../common/lib/libsymm_mpc8313_PtpGpsSe.a(clk_main_gps.o)
TGT_o_meanDrft      0x1               ../common/lib/libsymm_mpc8313_PtpGpsSe.a(TGT_gps.o)
rmc_f               0x4               ../common/lib/libsymm_mpc8313_PtpGpsSe.a(clk_main_gps.o)
floor_density_f     0x8               ../common/lib/libsymm_mpc8313_PtpGpsSe.a(clk_main_gps.o)
hprev_r             0x8               ../common/lib/libsymm_mpc8313_PtpGpsSe.a(CLK_gps.o)
time_bias_var       0x8               ../common/lib/libsymm_mpc8313_PtpGpsSe.a(clk_main_gps.o)
CTL_ps_extTmPropDs  0x4               ../common/lib/libsymm_mpc8313_PtpGpsSe.a(CTLmain_gps.o)

Discarded input sections

 .note.GNU-stack
                0x00000000        0x0 /opt/sourcery-arm-201203/bin/../arm-none-linux-gnueabi/libc/usr/lib/crt1.o
 .note.GNU-stack
                0x00000000        0x0 /opt/sourcery-arm-201203/bin/../arm-none-linux-gnueabi/libc/usr/lib/crti.o
 .note.GNU-stack
                0x00000000        0x0 /opt/sourcery-arm-201203/bin/../lib/gcc/arm-none-linux-gnueabi/4.6.3/crtbegin.o
 .note.GNU-stack
                0x00000000        0x0 ./natsemi_util/epl_1588_gps.o
 .note.GNU-stack
                0x00000000        0x0 ./timestamper_if/sc_timestamp_gps.o
 .note.GNU-stack
                0x00000000        0x0 ./clock_if/sc_clock_if_gps.o
 .note.GNU-stack
                0x00000000        0x0 ../common/network_if/sc_network_if_gps.o
 .note.GNU-stack
                0x00000000        0x0 ../common/log/sc_log_gps.o
 .note.GNU-stack
                0x00000000        0x0 ../common/user_if/sc_ui_gps.o
 .note.GNU-stack
                0x00000000        0x0 ../common/config_if/sc_readconfig_gps.o
 .note.GNU-stack
                0x00000000        0x0 ../common/chan_processing_if/sc_SSM_handling_gps.o
 .note.GNU-stack
                0x00000000        0x0 ../common/main_gps.o
 .note.GNU-stack
                0x00000000        0x0 ../common/se_if/sc_se_if.o
 .note.GNU-stack
                0x00000000        0x0 ../common/gps_if/sc_gps_if.o
 .note.GNU-stack
                0x00000000        0x0 ../common/lib/libsymm_mpc8313_PtpGpsSe.a(sc_chan_gps.o)
 .note.GNU-stack
                0x00000000        0x0 ../common/lib/libsymm_mpc8313_PtpGpsSe.a(sc_alarms_gps.o)
 .note.GNU-stack
                0x00000000        0x0 ../common/lib/libsymm_mpc8313_PtpGpsSe.a(CLK_gps.o)
 .note.GNU-stack
                0x00000000        0x0 ../common/lib/libsymm_mpc8313_PtpGpsSe.a(clk_ana_gps.o)
 .note.GNU-stack
                0x00000000        0x0 ../common/lib/libsymm_mpc8313_PtpGpsSe.a(clk_acq_gps.o)
 .note.GNU-stack
                0x00000000        0x0 ../common/lib/libsymm_mpc8313_PtpGpsSe.a(clk_input_gps.o)
 .note.GNU-stack
                0x00000000        0x0 ../common/lib/libsymm_mpc8313_PtpGpsSe.a(clk_main_gps.o)
 .note.GNU-stack
                0x00000000        0x0 ../common/lib/libsymm_mpc8313_PtpGpsSe.a(sc_ptp_servo_gps.o)
 .note.GNU-stack
                0x00000000        0x0 ../common/lib/libsymm_mpc8313_PtpGpsSe.a(sc_system_gps.o)
 .note.GNU-stack
                0x00000000        0x0 ../common/lib/libsymm_mpc8313_PtpGpsSe.a(DBG_gps.o)
 .note.GNU-stack
                0x00000000        0x0 ../common/lib/libsymm_mpc8313_PtpGpsSe.a(sc_mnt_gps.o)
 .note.GNU-stack
                0x00000000        0x0 ../common/lib/libsymm_mpc8313_PtpGpsSe.a(THD_gps.o)
 .note.GNU-stack
                0x00000000        0x0 ../common/lib/libsymm_mpc8313_PtpGpsSe.a(sc_gps.o)
 .note.GNU-stack
                0x00000000        0x0 ../common/lib/libsymm_mpc8313_PtpGpsSe.a(GPS.o)
 .note.GNU-stack
                0x00000000        0x0 ../common/lib/libsymm_mpc8313_PtpGpsSe.a(SE.o)
 .note.GNU-stack
                0x00000000        0x0 ../common/lib/libsymm_mpc8313_PtpGpsSe.a(PTP_gps.o)
 .note.GNU-stack
                0x00000000        0x0 ../common/lib/libsymm_mpc8313_PtpGpsSe.a(CTLmain_gps.o)
 .note.GNU-stack
                0x00000000        0x0 ../common/lib/libsymm_mpc8313_PtpGpsSe.a(CTLflt_gps.o)
 .note.GNU-stack
                0x00000000        0x0 ../common/lib/libsymm_mpc8313_PtpGpsSe.a(CTLds_gps.o)
 .note.GNU-stack
                0x00000000        0x0 ../common/lib/libsymm_mpc8313_PtpGpsSe.a(CLKflt_gps.o)
 .note.GNU-stack
                0x00000000        0x0 ../common/lib/libsymm_mpc8313_PtpGpsSe.a(SLVdel_gps.o)
 .note.GNU-stack
                0x00000000        0x0 ../common/lib/libsymm_mpc8313_PtpGpsSe.a(SLVdel_queue_gps.o)
 .note.GNU-stack
                0x00000000        0x0 ../common/lib/libsymm_mpc8313_PtpGpsSe.a(SLVsyn_gps.o)
 .note.GNU-stack
                0x00000000        0x0 ../common/lib/libsymm_mpc8313_PtpGpsSe.a(SLVmain_gps.o)
 .note.GNU-stack
                0x00000000        0x0 ../common/lib/libsymm_mpc8313_PtpGpsSe.a(MNTmain_gps.o)
 .note.GNU-stack
                0x00000000        0x0 ../common/lib/libsymm_mpc8313_PtpGpsSe.a(MNTapi_gps.o)
 .note.GNU-stack
                0x00000000        0x0 ../common/lib/libsymm_mpc8313_PtpGpsSe.a(MNTmsg_gps.o)
 .note.GNU-stack
                0x00000000        0x0 ../common/lib/libsymm_mpc8313_PtpGpsSe.a(NIFmain_gps.o)
 .note.GNU-stack
                0x00000000        0x0 ../common/lib/libsymm_mpc8313_PtpGpsSe.a(NIFtx_gps.o)
 .note.GNU-stack
                0x00000000        0x0 ../common/lib/libsymm_mpc8313_PtpGpsSe.a(UCMmain_gps.o)
 .note.GNU-stack
                0x00000000        0x0 ../common/lib/libsymm_mpc8313_PtpGpsSe.a(DISmain_gps.o)
 .note.GNU-stack
                0x00000000        0x0 ../common/lib/libsymm_mpc8313_PtpGpsSe.a(DISnet_gps.o)
 .note.GNU-stack
                0x00000000        0x0 ../common/lib/libsymm_mpc8313_PtpGpsSe.a(DISrx_gps.o)
 .note.GNU-stack
                0x00000000        0x0 ../common/lib/libsymm_mpc8313_PtpGpsSe.a(DIStx_gps.o)
 .note.GNU-stack
                0x00000000        0x0 ../common/lib/libsymm_mpc8313_PtpGpsSe.a(MSTmain_gps.o)
 .note.GNU-stack
                0x00000000        0x0 ../common/lib/libsymm_mpc8313_PtpGpsSe.a(MSTsyn_gps.o)
 .note.GNU-stack
                0x00000000        0x0 ../common/lib/libsymm_mpc8313_PtpGpsSe.a(MSTannc_gps.o)
 .note.GNU-stack
                0x00000000        0x0 ../common/lib/libsymm_mpc8313_PtpGpsSe.a(CIFmain_gps.o)
 .note.GNU-stack
                0x00000000        0x0 ../common/lib/libsymm_mpc8313_PtpGpsSe.a(TSUmain_gps.o)
 .note.GNU-stack
                0x00000000        0x0 ../common/lib/libsymm_mpc8313_PtpGpsSe.a(FIO_gps.o)
 .note.GNU-stack
                0x00000000        0x0 ../common/lib/libsymm_mpc8313_PtpGpsSe.a(FIOerr_gps.o)
 .note.GNU-stack
                0x00000000        0x0 ../common/lib/libsymm_mpc8313_PtpGpsSe.a(FLTno_gps.o)
 .note.GNU-stack
                0x00000000        0x0 ../common/lib/libsymm_mpc8313_PtpGpsSe.a(tod_gps.o)
 .note.GNU-stack
                0x00000000        0x0 ../common/lib/libsymm_mpc8313_PtpGpsSe.a(TGT_gps.o)
 .note.GNU-stack
                0x00000000        0x0 ../common/lib/libsymm_mpc8313_PtpGpsSe.a(SISmpool_gps.o)
 .note.GNU-stack
                0x00000000        0x0 ../common/lib/libsymm_mpc8313_PtpGpsSe.a(SISmain_gps.o)
 .note.GNU-stack
                0x00000000        0x0 ../common/lib/libsymm_mpc8313_PtpGpsSe.a(SISevent_gps.o)
 .note.GNU-stack
                0x00000000        0x0 ../common/lib/libsymm_mpc8313_PtpGpsSe.a(SISmbox_gps.o)
 .note.GNU-stack
                0x00000000        0x0 ../common/lib/libsymm_mpc8313_PtpGpsSe.a(GOE_gps.o)
 .note.GNU-stack
                0x00000000        0x0 ../common/lib/libsymm_mpc8313_PtpGpsSe.a(GN_GPS_Task.o)
 .note.GNU-stack
                0x00000000        0x0 ../common/lib/libsymm_mpc8313_PtpGpsSe.a(UCDmain_gps.o)
 .note.GNU-stack
                0x00000000        0x0 ../common/lib/libsymm_mpc8313_PtpGpsSe.a(PTPmath_gps.o)
 .note.GNU-stack
                0x00000000        0x0 ../common/lib/libsymm_mpc8313_PtpGpsSe.a(CTLbmc_gps.o)
 .note.GNU-stack
                0x00000000        0x0 ../common/lib/libsymm_mpc8313_PtpGpsSe.a(MNTget_gps.o)
 .note.GNU-stack
                0x00000000        0x0 ../common/lib/libsymm_mpc8313_PtpGpsSe.a(NIFrx_gps.o)
 .note.GNU-stack
                0x00000000        0x0 ../common/lib/libsymm_mpc8313_PtpGpsSe.a(UCMannc_gps.o)
 .note.GNU-stack
                0x00000000        0x0 ../common/lib/libsymm_mpc8313_PtpGpsSe.a(UCMsyn_gps.o)
 .note.GNU-stack
                0x00000000        0x0 ../common/lib/libsymm_mpc8313_PtpGpsSe.a(UCMdel_gps.o)
 .note.GNU-stack
                0x00000000        0x0 ../common/lib/libsymm_mpc8313_PtpGpsSe.a(MSTdel_gps.o)
 .note.GNU-stack
                0x00000000        0x0 ../common/lib/libsymm_mpc8313_PtpGpsSe.a(sc_ptp_mgmt_gps.o)
 .note.GNU-stack
                0x00000000        0x0 ../common/lib/libsymm_mpc8313_PtpGpsSe.a(sc_util_gps.o)
 .note.GNU-stack
                0x00000000        0x0 /opt/sourcery-arm-201203/bin/../lib/gcc/arm-none-linux-gnueabi/4.6.3/libgcc.a(_udivsi3.o)
 .note.GNU-stack
                0x00000000        0x0 /opt/sourcery-arm-201203/bin/../lib/gcc/arm-none-linux-gnueabi/4.6.3/libgcc.a(_divsi3.o)
 .note.GNU-stack
                0x00000000        0x0 /opt/sourcery-arm-201203/bin/../lib/gcc/arm-none-linux-gnueabi/4.6.3/libgcc.a(_arm_addsubdf3.o)
 .note.GNU-stack
                0x00000000        0x0 /opt/sourcery-arm-201203/bin/../lib/gcc/arm-none-linux-gnueabi/4.6.3/libgcc.a(_arm_muldivdf3.o)
 .note.GNU-stack
                0x00000000        0x0 /opt/sourcery-arm-201203/bin/../lib/gcc/arm-none-linux-gnueabi/4.6.3/libgcc.a(_arm_cmpdf2.o)
 .note.GNU-stack
                0x00000000        0x0 /opt/sourcery-arm-201203/bin/../lib/gcc/arm-none-linux-gnueabi/4.6.3/libgcc.a(_arm_fixdfsi.o)
 .note.GNU-stack
                0x00000000        0x0 /opt/sourcery-arm-201203/bin/../lib/gcc/arm-none-linux-gnueabi/4.6.3/libgcc.a(_arm_fixunsdfsi.o)
 .note.GNU-stack
                0x00000000        0x0 /opt/sourcery-arm-201203/bin/../lib/gcc/arm-none-linux-gnueabi/4.6.3/libgcc.a(_arm_truncdfsf2.o)
 .note.GNU-stack
                0x00000000        0x0 /opt/sourcery-arm-201203/bin/../lib/gcc/arm-none-linux-gnueabi/4.6.3/libgcc.a(_arm_cmpsf2.o)
 .note.GNU-stack
                0x00000000        0x0 /opt/sourcery-arm-201203/bin/../lib/gcc/arm-none-linux-gnueabi/4.6.3/libgcc.a(_aeabi_ldivmod.o)
 .note.GNU-stack
                0x00000000        0x0 /opt/sourcery-arm-201203/bin/../lib/gcc/arm-none-linux-gnueabi/4.6.3/libgcc.a(_aeabi_uldivmod.o)
 .note.GNU-stack
                0x00000000        0x0 /opt/sourcery-arm-201203/bin/../lib/gcc/arm-none-linux-gnueabi/4.6.3/libgcc.a(_dvmd_lnx.o)
 .note.GNU-stack
                0x00000000        0x0 /opt/sourcery-arm-201203/bin/../lib/gcc/arm-none-linux-gnueabi/4.6.3/libgcc.a(_fixdfdi.o)
 .note.GNU-stack
                0x00000000        0x0 /opt/sourcery-arm-201203/bin/../lib/gcc/arm-none-linux-gnueabi/4.6.3/libgcc.a(_fixunsdfdi.o)
 .note.GNU-stack
                0x00000000        0x0 /opt/sourcery-arm-201203/bin/../lib/gcc/arm-none-linux-gnueabi/4.6.3/libgcc.a(bpabi.o)
 .note.GNU-stack
                0x00000000        0x0 /opt/sourcery-arm-201203/bin/../lib/gcc/arm-none-linux-gnueabi/4.6.3/libgcc.a(_divdi3.o)
 .note.GNU-stack
                0x00000000        0x0 /opt/sourcery-arm-201203/bin/../lib/gcc/arm-none-linux-gnueabi/4.6.3/libgcc.a(_udivdi3.o)
 .note.GNU-stack
                0x00000000        0x0 /opt/sourcery-arm-201203/bin/../arm-none-linux-gnueabi/libc/usr/lib/libc_nonshared.a(elf-init.oS)
 .note.GNU-stack
                0x00000000        0x0 /opt/sourcery-arm-201203/bin/../lib/gcc/arm-none-linux-gnueabi/4.6.3/crtend.o
 .note.GNU-stack
                0x00000000        0x0 /opt/sourcery-arm-201203/bin/../arm-none-linux-gnueabi/libc/usr/lib/crtn.o

Memory Configuration

Name             Origin             Length             Attributes
*default*        0x00000000         0xffffffff

Linker script and memory map

LOAD /opt/sourcery-arm-201203/bin/../arm-none-linux-gnueabi/libc/usr/lib/crt1.o
LOAD /opt/sourcery-arm-201203/bin/../arm-none-linux-gnueabi/libc/usr/lib/crti.o
LOAD /opt/sourcery-arm-201203/bin/../lib/gcc/arm-none-linux-gnueabi/4.6.3/crtbegin.o
LOAD ./natsemi_util/epl_1588_gps.o
LOAD ./timestamper_if/sc_timestamp_gps.o
LOAD ./clock_if/sc_clock_if_gps.o
LOAD ../common/network_if/sc_network_if_gps.o
LOAD ../common/log/sc_log_gps.o
LOAD ../common/user_if/sc_ui_gps.o
LOAD ../common/config_if/sc_readconfig_gps.o
LOAD ../common/chan_processing_if/sc_SSM_handling_gps.o
LOAD ../common/main_gps.o
LOAD ../common/se_if/sc_se_if.o
LOAD ../common/gps_if/sc_gps_if.o
LOAD ../common/lib/libsymm_mpc8313_PtpGpsSe.a
LOAD ../../../Mstate/libzss_mstate.so
LOAD ../../../Clock/libzss_clock.so
LOAD /opt/sourcery-arm-201203/bin/../arm-none-linux-gnueabi/libc/usr/lib/libpthread.so
START GROUP
LOAD /opt/sourcery-arm-201203/bin/../arm-none-linux-gnueabi/libc/lib/libpthread.so.0
LOAD /opt/sourcery-arm-201203/bin/../arm-none-linux-gnueabi/libc/usr/lib/libpthread_nonshared.a
END GROUP
LOAD /opt/sourcery-arm-201203/bin/../arm-none-linux-gnueabi/libc/usr/lib/librt.so
LOAD /opt/sourcery-arm-201203/bin/../arm-none-linux-gnueabi/libc/usr/lib/libm.so
LOAD /opt/sourcery-arm-201203/bin/../lib/gcc/arm-none-linux-gnueabi/4.6.3/libgcc.a
LOAD /opt/sourcery-arm-201203/bin/../arm-none-linux-gnueabi/libc/lib/libgcc_s.so
START GROUP
LOAD /opt/sourcery-arm-201203/bin/../arm-none-linux-gnueabi/libc/lib/libgcc_s.so.1
LOAD /opt/sourcery-arm-201203/bin/../lib/gcc/arm-none-linux-gnueabi/4.6.3/libgcc.a
END GROUP
LOAD /opt/sourcery-arm-201203/bin/../arm-none-linux-gnueabi/libc/usr/lib/libc.so
START GROUP
LOAD /opt/sourcery-arm-201203/bin/../arm-none-linux-gnueabi/libc/lib/libc.so.6
LOAD /opt/sourcery-arm-201203/bin/../arm-none-linux-gnueabi/libc/usr/lib/libc_nonshared.a
LOAD /opt/sourcery-arm-201203/bin/../arm-none-linux-gnueabi/libc/lib/ld-linux.so.3
END GROUP
LOAD /opt/sourcery-arm-201203/bin/../lib/gcc/arm-none-linux-gnueabi/4.6.3/libgcc.a
LOAD /opt/sourcery-arm-201203/bin/../arm-none-linux-gnueabi/libc/lib/libgcc_s.so
START GROUP
LOAD /opt/sourcery-arm-201203/bin/../arm-none-linux-gnueabi/libc/lib/libgcc_s.so.1
LOAD /opt/sourcery-arm-201203/bin/../lib/gcc/arm-none-linux-gnueabi/4.6.3/libgcc.a
END GROUP
LOAD /opt/sourcery-arm-201203/bin/../lib/gcc/arm-none-linux-gnueabi/4.6.3/crtend.o
LOAD /opt/sourcery-arm-201203/bin/../arm-none-linux-gnueabi/libc/usr/lib/crtn.o
                0x00008000                PROVIDE (__executable_start, 0x8000)
                0x00008134                . = (0x8000 + SIZEOF_HEADERS)

.interp         0x00008134       0x13
 *(.interp)
 .interp        0x00008134       0x13 /opt/sourcery-arm-201203/bin/../arm-none-linux-gnueabi/libc/usr/lib/crt1.o

.note.ABI-tag   0x00008148       0x20
 .note.ABI-tag  0x00008148       0x20 /opt/sourcery-arm-201203/bin/../arm-none-linux-gnueabi/libc/usr/lib/crt1.o

.note.gnu.build-id
 *(.note.gnu.build-id)

.hash           0x00008168      0xafc
 *(.hash)
 .hash          0x00008168      0xafc /opt/sourcery-arm-201203/bin/../arm-none-linux-gnueabi/libc/usr/lib/crt1.o

.gnu.hash
 *(.gnu.hash)

.dynsym         0x00008c64     0x1b60
 *(.dynsym)
 .dynsym        0x00008c64     0x1b60 /opt/sourcery-arm-201203/bin/../arm-none-linux-gnueabi/libc/usr/lib/crt1.o

.dynstr         0x0000a7c4     0x17e4
 *(.dynstr)
 .dynstr        0x0000a7c4     0x17e4 /opt/sourcery-arm-201203/bin/../arm-none-linux-gnueabi/libc/usr/lib/crt1.o

.gnu.version    0x0000bfa8      0x36c
 *(.gnu.version)
 .gnu.version   0x0000bfa8      0x36c /opt/sourcery-arm-201203/bin/../arm-none-linux-gnueabi/libc/usr/lib/crt1.o

.gnu.version_d  0x0000c314        0x0
 *(.gnu.version_d)
 .gnu.version_d
                0x00000000        0x0 /opt/sourcery-arm-201203/bin/../arm-none-linux-gnueabi/libc/usr/lib/crt1.o

.gnu.version_r  0x0000c314       0x90
 *(.gnu.version_r)
 .gnu.version_r
                0x0000c314       0x90 /opt/sourcery-arm-201203/bin/../arm-none-linux-gnueabi/libc/usr/lib/crt1.o

.rel.dyn        0x0000c3a4       0x20
 *(.rel.init)
 *(.rel.text .rel.text.* .rel.gnu.linkonce.t.*)
 *(.rel.fini)
 *(.rel.rodata .rel.rodata.* .rel.gnu.linkonce.r.*)
 *(.rel.data.rel.ro* .rel.gnu.linkonce.d.rel.ro.*)
 *(.rel.data .rel.data.* .rel.gnu.linkonce.d.*)
 *(.rel.tdata .rel.tdata.* .rel.gnu.linkonce.td.*)
 *(.rel.tbss .rel.tbss.* .rel.gnu.linkonce.tb.*)
 *(.rel.ctors)
 *(.rel.dtors)
 *(.rel.got)
 .rel.got       0x0000c3a4       0x10 /opt/sourcery-arm-201203/bin/../arm-none-linux-gnueabi/libc/usr/lib/crt1.o
 *(.rel.bss .rel.bss.* .rel.gnu.linkonce.b.*)
 .rel.bss       0x0000c3b4       0x10 /opt/sourcery-arm-201203/bin/../arm-none-linux-gnueabi/libc/usr/lib/crt1.o
                0x0000c3c4                PROVIDE (__rel_iplt_start, .)
 *(.rel.iplt)
 .rel.iplt      0x00000000        0x0 /opt/sourcery-arm-201203/bin/../arm-none-linux-gnueabi/libc/usr/lib/crt1.o
                0x0000c3c4                PROVIDE (__rel_iplt_end, .)
                0x0000c3c4                PROVIDE (__rela_iplt_start, .)
                0x0000c3c4                PROVIDE (__rela_iplt_end, .)

.rela.dyn       0x0000c3c4        0x0
 *(.rela.init)
 *(.rela.text .rela.text.* .rela.gnu.linkonce.t.*)
 *(.rela.fini)
 *(.rela.rodata .rela.rodata.* .rela.gnu.linkonce.r.*)
 *(.rela.data .rela.data.* .rela.gnu.linkonce.d.*)
 *(.rela.tdata .rela.tdata.* .rela.gnu.linkonce.td.*)
 *(.rela.tbss .rela.tbss.* .rela.gnu.linkonce.tb.*)
 *(.rela.ctors)
 *(.rela.dtors)
 *(.rela.got)
 *(.rela.bss .rela.bss.* .rela.gnu.linkonce.b.*)
                0x0000c3c4                PROVIDE (__rel_iplt_start, .)
                0x0000c3c4                PROVIDE (__rel_iplt_end, .)
                0x0000c3c4                PROVIDE (__rela_iplt_start, .)
 *(.rela.iplt)
                0x0000c3c4                PROVIDE (__rela_iplt_end, .)

.rel.plt        0x0000c3c4      0x2d0
 *(.rel.plt)
 .rel.plt       0x0000c3c4      0x2d0 /opt/sourcery-arm-201203/bin/../arm-none-linux-gnueabi/libc/usr/lib/crt1.o

.rela.plt
 *(.rela.plt)

.init           0x0000c694        0xc
 *(.init)
 .init          0x0000c694        0x8 /opt/sourcery-arm-201203/bin/../arm-none-linux-gnueabi/libc/usr/lib/crti.o
                0x0000c694                _init
 .init          0x0000c69c        0x4 /opt/sourcery-arm-201203/bin/../arm-none-linux-gnueabi/libc/usr/lib/crtn.o

.plt            0x0000c6a0      0x44c
 *(.plt)
 .plt           0x0000c6a0      0x44c /opt/sourcery-arm-201203/bin/../arm-none-linux-gnueabi/libc/usr/lib/crt1.o
                0x0000c6b4                open@@GLIBC_2.4
                0x0000c6c0                strerror@@GLIBC_2.4
                0x0000c6cc                abort@@GLIBC_2.4
                0x0000c6d8                srand@@GLIBC_2.4
                0x0000c6e4                vprintf@@GLIBC_2.4
                0x0000c6f0                clock_getres@@GLIBC_2.4
                0x0000c6fc                memcmp@@GLIBC_2.4
                0x0000c708                syslog@@GLIBC_2.4
                0x0000c714                pthread_exit@@GLIBC_2.4
                0x0000c720                clock_gettime@@GLIBC_2.4
                0x0000c72c                __libc_start_main@@GLIBC_2.4
                0x0000c738                mstated_get_param
                0x0000c744                inet_ntoa@@GLIBC_2.4
                0x0000c750                signal@@GLIBC_2.4
                0x0000c768                __isoc99_sscanf@@GLIBC_2.7
                0x0000c774                inet_addr@@GLIBC_2.4
                0x0000c780                vsprintf@@GLIBC_2.4
                0x0000c78c                strncpy@@GLIBC_2.4
                0x0000c798                fclose@@GLIBC_2.4
                0x0000c7a4                fgets@@GLIBC_2.4
                0x0000c7b0                recv@@GLIBC_2.4
                0x0000c7bc                system@@GLIBC_2.4
                0x0000c7c8                strchr@@GLIBC_2.4
                0x0000c7d4                putchar@@GLIBC_2.4
                0x0000c7e0                listen@@GLIBC_2.4
                0x0000c7ec                ctime_r@@GLIBC_2.4
                0x0000c7f8                sem_init@@GLIBC_2.4
                0x0000c804                sendto@@GLIBC_2.4
                0x0000c810                fopen@@GLIBC_2.4
                0x0000c81c                sched_setscheduler@@GLIBC_2.4
                0x0000c828                memset@@GLIBC_2.4
                0x0000c834                sem_destroy@@GLIBC_2.4
                0x0000c840                setitimer@@GLIBC_2.4
                0x0000c84c                __assert_fail@@GLIBC_2.4
                0x0000c858                usleep@@GLIBC_2.4
                0x0000c864                read@@GLIBC_2.4
                0x0000c870                write@@GLIBC_2.4
                0x0000c87c                accept@@GLIBC_2.4
                0x0000c888                __strtok_r@@GLIBC_2.4
                0x0000c894                pthread_mutex_unlock@@GLIBC_2.4
                0x0000c8a0                socket@@GLIBC_2.4
                0x0000c8ac                fflush@@GLIBC_2.4
                0x0000c8b8                ioctl@@GLIBC_2.4
                0x0000c8c4                pthread_mutex_lock@@GLIBC_2.4
                0x0000c8d0                strlen@@GLIBC_2.4
                0x0000c8dc                unlink@@GLIBC_2.4
                0x0000c8e8                getopt@@GLIBC_2.4
                0x0000c8f4                pthread_create@@GLIBC_2.4
                0x0000c900                memcpy@@GLIBC_2.4
                0x0000c90c                fgetc@@GLIBC_2.4
                0x0000c918                strtol@@GLIBC_2.4
                0x0000c924                strcpy@@GLIBC_2.4
                0x0000c930                sem_post@@GLIBC_2.4
                0x0000c93c                strncat@@GLIBC_2.4
                0x0000c948                pthread_mutex_destroy@@GLIBC_2.4
                0x0000c954                printf@@GLIBC_2.4
                0x0000c960                raise@@GLIBC_2.4
                0x0000c96c                pthread_mutex_init@@GLIBC_2.4
                0x0000c978                bind@@GLIBC_2.4
                0x0000c984                strstr@@GLIBC_2.4
                0x0000c990                select@@GLIBC_2.4
                0x0000c99c                close@@GLIBC_2.4
                0x0000c9a8                fwrite@@GLIBC_2.4
                0x0000c9b4                time@@GLIBC_2.4
                0x0000c9c0                __ctype_b_loc@@GLIBC_2.4
                0x0000c9cc                fprintf@@GLIBC_2.4
                0x0000c9d8                malloc@@GLIBC_2.4
                0x0000c9e4                gmtime_r@@GLIBC_2.4
                0x0000c9f0                fputc@@GLIBC_2.4
                0x0000c9fc                sleep@@GLIBC_2.4
                0x0000ca08                send@@GLIBC_2.4
                0x0000ca14                strcat@@GLIBC_2.4
                0x0000ca20                memmove@@GLIBC_2.4
                0x0000ca2c                puts@@GLIBC_2.4
                0x0000ca38                clock_get_source_refvalid
                0x0000ca44                fcntl@@GLIBC_2.4
                0x0000ca50                snprintf@@GLIBC_2.4
                0x0000ca5c                fread@@GLIBC_2.4
                0x0000ca68                strncmp@@GLIBC_2.4
                0x0000ca74                gmtime@@GLIBC_2.4
                0x0000ca80                recvfrom@@GLIBC_2.4
                0x0000ca8c                setsockopt@@GLIBC_2.4
                0x0000ca98                getitimer@@GLIBC_2.4
                0x0000caa4                sem_wait@@GLIBC_2.4
                0x0000cab0                strcmp@@GLIBC_2.4
                0x0000cabc                exit@@GLIBC_2.4
                0x0000cac8                __errno_location@@GLIBC_2.4
                0x0000cad4                sprintf@@GLIBC_2.4
                0x0000cae0                pthread_join@@GLIBC_2.4

.iplt           0x0000caec        0x0
 *(.iplt)
 .iplt          0x00000000        0x0 /opt/sourcery-arm-201203/bin/../arm-none-linux-gnueabi/libc/usr/lib/crt1.o

.text           0x0000caf0    0x7e10c
 *(.text.unlikely .text.*_unlikely)
 *(.text.exit .text.exit.*)
 *(.text.startup .text.startup.*)
 .text.startup  0x0000caf0     0x1244 ../common/main_gps.o
                0x0000caf0                main
 *(.text.hot .text.hot.*)
 *(.text .stub .text.* .gnu.linkonce.t.*)
 .text          0x0000dd34       0x3c /opt/sourcery-arm-201203/bin/../arm-none-linux-gnueabi/libc/usr/lib/crt1.o
                0x0000dd34                _start
 .text          0x0000dd70       0x24 /opt/sourcery-arm-201203/bin/../arm-none-linux-gnueabi/libc/usr/lib/crti.o
 .text          0x0000dd94       0x4c /opt/sourcery-arm-201203/bin/../lib/gcc/arm-none-linux-gnueabi/4.6.3/crtbegin.o
 .text          0x0000dde0     0x1d58 ./natsemi_util/epl_1588_gps.o
                0x0000dde0                Init_PHY_Resource
                0x0000dee4                Get_MII_Resource
                0x0000def0                Release_MII_Resource
                0x0000defc                mdio_read
                0x0000df68                mdio_write
                0x0000dfcc                write_phy_reg
                0x0000e048                read_phy_reg
                0x0000e0bc                send_to_MMFR
                0x0000e1a8                read_from_MMFR
                0x0000e2ac                read_from_MMFR_no_paging
                0x0000e2b4                OAIBeginMultiCriticalSection
                0x0000e2c0                OAIEndMultiCriticalSection
                0x0000e2cc                EPLReadReg
                0x0000e2e4                EPLWriteReg
                0x0000e3d0                PTPEnable
                0x0000e3e4                PTPSetTriggerConfig
                0x0000e424                PTPSetEventConfig
                0x0000e474                PTPSetTransmitConfig
                0x0000e4f4                PTPSetPhyStatusFrameConfig
                0x0000e5dc                PTPSetReceiveConfig
                0x0000e74c                PTPCalcSourceIdHash
                0x0000eeb4                PTPSetTempRateDurationConfig
                0x0000eee4                PTPSetClockConfig
                0x0000ef54                PTPSetGpioInterruptConfig
                0x0000ef60                PTPSetMiscConfig
                0x0000efa8                PTPClockReadCurrent
                0x0000f034                PTPClockStepAdjustment
                0x0000f0c0                PTPClockSet
                0x0000f144                PTPClockSetRateAdjustment
                0x0000f1a4                PTPCheckForEvents
                0x0000f1e0                PTPGetTransmitTimestamp
                0x0000f26c                PTPGetReceiveTimestamp
                0x0000f338                PTPGetTimestampFromFrame
                0x0000f3f0                PTPArmTrigger
                0x0000f514                PTPArmTrigger_ns
                0x0000f574                PTPHasTriggerExpired
                0x0000f5c0                PTPCancelTrigger
                0x0000f5fc                PTPGetEvent
                0x0000f79c                MonitorGpioSignals
                0x0000f7b0                IsPhyStatusFrame
                0x0000f8c4                GetNextPhyMessage
 .text          0x0000fb38       0x5c ./timestamper_if/sc_timestamp_gps.o
                0x0000fb38                SC_InitTimeStamper
                0x0000fb44                SC_GetRxTimeStamp
                0x0000fb68                SC_GetTxTimeStamp
 .text          0x0000fb94     0x163c ./clock_if/sc_clock_if_gps.o
                0x0000fbe4                SC_InitClock
                0x0000fe58                SC_PhaseOffset
                0x0000ffb8                SC_GetPhasorLosCntr
                0x00010040                SC_GetExtRefPhasorLosCntr
                0x000100b8                SC_GetPhasorOffset
                0x000101d4                SC_GetPhasorOffset1
                0x000102f0                SC_GetPhasorOffset2
                0x0001040c                SC_GetPhasorOffset3
                0x00010528                SC_SystemTime
                0x000105ac                SC_StoreFreqCorr
                0x000105ec                SC_SetSynthOn
                0x000105fc                SC_WarpFrequency
                0x00010bd8                SC_FrequencyCorrection
                0x00010d7c                SC_ReadVcalFromFile
                0x0001104c                getInbandOffset
                0x00011060                putPhaseMode
                0x00011070                setExtRefDivider
                0x000110e8                setE1T1OutEnable
                0x00011160                setExtOutFreq
 .text          0x000111d0     0x1858 ../common/network_if/sc_network_if_gps.o
                0x00011334                SC_GetLinkSpeed
                0x000113e4                SC_GetLinkStat
                0x00011480                SC_InitNetIf
                0x00011fd8                SC_CloseNetIf
                0x00012040                SC_GetSockHdl
                0x00012074                SC_GetIfAddrs
                0x000120c4                SC_GetNetLatency
                0x0001215c                SC_TxPacket
                0x00012288                SC_RxPacket
                0x00012394                InitSePortStructures
                0x000123c4                InitSePort
                0x0001266c                ProcessESMC
                0x00012934                CloseSePort
                0x000129a8                setSE1los
                0x000129b8                setSE2los
                0x000129c8                ProcessLOS
 .text          0x00012a28      0x388 ../common/log/sc_log_gps.o
                0x00012c5c                SC_Event
                0x00012d28                SC_DbgLog
                0x00012d6c                getLocalEventLog
 .text          0x00012db0     0x6350 ../common/user_if/sc_ui_gps.o
                0x00015180                SC_StartUi
                0x00018d34                SC_StopUi
                0x00018d4c                trueFalseIntToChar
                0x00018d5c                trueFalseCharToInt
                0x00018d90                tenHzThread
                0x000190d0                SC_TimeCode
 .text          0x00019100     0x2230 ../common/config_if/sc_readconfig_gps.o
                0x00019100                parseInitChanConfig
                0x000194f4                setPTPProtocolConfig
                0x000195e8                parseIPAddress
                0x000198bc                chanConfigToString
                0x00019ab8                pTPUMAddressToString
                0x00019c7c                strncat_local
                0x00019ca8                stringToChanType
                0x00019dbc                stringToAccessTransportType
                0x00019ea0                accessTransportTypeToString
                0x00019f64                chanTypeToString
                0x00019ff8                stringToCommand
                0x0001a100                commandToString
                0x0001a1d4                readOffsetFromFile
                0x0001a2b0                readConfigFromFile
                0x0001b168                SC_WriteFreqCorrToFile
                0x0001b240                GetGps1Chan
                0x0001b250                GetGps2Chan
                0x0001b260                GetGps3Chan
                0x0001b270                GetGps4Chan
                0x0001b280                GetSe1Chan
                0x0001b290                GetSe2Chan
                0x0001b2a0                GetE1Chan
                0x0001b2b0                GetT1Chan
                0x0001b2c0                GetRedChan
                0x0001b2d0                GetExtAChan
                0x0001b2e0                GetExtBChan
                0x0001b2f0                GetEth0Chan
                0x0001b300                GetEth1Chan
                0x0001b310                GetRedundancyChan
                0x0001b320                GetFreqOnlyChan
 .text          0x0001b330      0x3e0 ../common/chan_processing_if/sc_SSM_handling_gps.o
                0x0001b330                SC_ChanSSM
                0x0001b424                SC_SetSSMValue
                0x0001b500                SC_ChanValid
                0x0001b5a0                SC_SetChanValid
                0x0001b63c                chanAttributes_RAW
 .text          0x0001b710      0x8ec ../common/main_gps.o
                0x0001bd1c                TODtoPhasorTask
                0x0001bd44                clkserv_create_socket
                0x0001be58                TimerStart
                0x0001bf0c                TimerStop
                0x0001bf4c                diff_usec
 .text          0x0001bffc        0x8 ../common/se_if/sc_se_if.o
                0x0001bffc                SC_InitSeIf
                0x0001c000                SC_CloseSeIf
 .text          0x0001c004      0x130 ../common/gps_if/sc_gps_if.o
                0x0001c004                SC_InitGpsIf
                0x0001c00c                SC_CloseGpsIf
                0x0001c060                SC_GpsTxData
                0x0001c078                SC_GpsRxData
                0x0001c090                SC_GpsTod
                0x0001c0a0                SC_GpsReset
 .text          0x0001c134     0x6a74 ../common/lib/libsymm_mpc8313_PtpGpsSe.a(sc_chan_gps.o)
                0x0001c134                GetNumberOfChan
                0x0001c160                UserChan2ServoIndex
                0x0001c1f0                ServoIndex2UserChan
                0x0001cd7c                GetCurrChan
                0x0001decc                GetEventBitmap
                0x0001e078                Update_chanSelect
                0x0001fee0                Get_servoChanSelect
                0x0001ff30                Set_servoChanSelect
                0x0001ff78                Set_servoChanSelectValid
                0x0001ffec                SC_ChanSwtMode
                0x000200bc                SC_ChanSelMode
                0x0002018c                SC_SetSelChan
                0x000202d4                SC_ChanEnable
                0x00020510                SC_ChanPriority
                0x000206b8                SC_ChanAssumeQL
                0x00020870                SC_ChanEnableAssumeQL
                0x0002098c                SC_GetChanConfig
                0x00020ad0                SC_InitChanConfig
                0x00021090                SC_GetChanStatus
                0x000214f4                SC_OutQualityLevel
                0x00021528                Is_ChanConfigured
                0x00021550                Set_ChanConfigured
                0x000215a0                Get_servoChanSelectRate
                0x0002161c                printChanStatus
                0x00022280                SC_QlToSSM
                0x000225dc                SC_GetEventMap
                0x0002299c                SC_GetRedundantStatus
                0x00022a14                SC_RedundantEnable
                0x00022ac4                Get_RedChan
                0x00022aec                SC_LoadMode
 .text          0x00022ba8        0x0 ../common/lib/libsymm_mpc8313_PtpGpsSe.a(sc_alarms_gps.o)
 .text          0x00022ba8    0x1a4d0 ../common/lib/libsymm_mpc8313_PtpGpsSe.a(CLK_gps.o)
                0x00022ba8                Get_GPS_Offset
                0x00022bc4                Is_in_PTP_mode
                0x00022bec                Is_in_PHY_mode
                0x00022c24                Is_Major_Time_Change
                0x00022c4c                Is_PTP_Disabled
                0x00022cb4                Is_GPS_OK
                0x00022d10                Is_Active_Time_Reference_OK
                0x00022ef8                Is_Active_Freq_Reference_OK
                0x00023114                Is_Active_Phy_Freq_Reference_OK
                0x0002326c                Is_Any_Freq_Reference_OK
                0x00023328                Is_PTP_FREQ_ACTIVE
                0x0002338c                Is_PTP_FREQ_VALID
                0x000233d0                Is_PHY_FREQ_ACTIVE
                0x000234c8                Is_PTP_Warm
                0x0002350c                Is_PTP_TIME_ACTIVE
                0x00023570                Is_GM_Lock_Holdover
                0x000235b4                OCXO_Type
                0x000235dc                Start_Phase_Test
                0x0002361c                Start_Freq_Test
                0x0002365c                Start_FreqZero_Test
                0x00023960                Get_Tick
                0x00023988                Get_FLL_State_str
                0x00023a3c                Send_Log
                0x00024a90                Get_Flow_Status
                0x00024ae8                Get_number_packets
                0x00024b30                Is_Sync_timeout
                0x00024b8c                Is_Delay_timeout
                0x00024bd8                Set_Seq_Num
                0x00024c0c                Is_Sync_Flow_Ack
                0x00024c7c                Is_Delay_Flow_Ack
                0x00024cec                Is_Announce_Flow_Ack
                0x00024d5c                SC_RunOneSecTask
                0x0002b39c                get_holdover_code
                0x00030360                init_pshape
                0x00030388                init_pshape_long
                0x000303b0                clr_residual_phase
                0x00030434                Restart_Phase_Time
                0x00030464                Restart_Phase_Time_now
                0x00030d94                Restart_FLL
                0x00030e14                SC_RestartServo
                0x00030ef0                Start_Vcal
                0x00030f3c                measmode
                0x00030ffc                setfreq_switchover
                0x00031028                setfreq
                0x00031474                set_stabilization
                0x000314c8                calfreq
                0x000319b8                exittilt
                0x00031a70                get_fll_config
                0x00031bfc                set_floor
                0x00031c2c                set_fll
                0x00031c5c                set_tdev
                0x00031c8c                set_combiner
                0x00031cbc                set_min_cluster
                0x00031d60                set_mode_compression_flag
                0x00032d04                Get_fdrift
                0x00032d3c                Set_fdrift
                0x00036d88                Get_time_correct
                0x00038270                report_freq_offset
                0x000385c4                sync_xfer_8s
                0x00038c14                clr_exc_gate
                0x00038c9c                set_oper_config
                0x0003a0b0                SC_RunAnalysisTask
                0x0003aeb0                Print_FIFO_Buffer
                0x0003b030                Varactor_Cal_Routine
                0x0003c0c0                fill_var_table
                0x0003c338                SC_GetVcalData
                0x0003c4c8                sqrt_local
                0x0003c5b0                GetTime
                0x0003ca98                Get_servoAccept
                0x0003cf08                Jam_Now
                0x0003cfc8                Jam_Never
                0x0003d010                Get_Jam_Threshold
                0x0003d050                Is_Jam_Needed
 .text          0x0003d078     0xd498 ../common/lib/libsymm_mpc8313_PtpGpsSe.a(clk_ana_gps.o)
                0x0003d078                fll_status_1min
                0x0003d710                Get_out_tdev_est
                0x0003d74c                get_fll_status
                0x0003d7d0                get_fll_state
                0x0003d804                get_fll_prev_state
                0x0003d838                get_fll_led_state
                0x0003d874                update_rfe
                0x0004368c                init_rfe
                0x000439f0                start_rfe
                0x00044374                warm_start_rfe
                0x00044c18                set_ippm_pacing
                0x00044c38                set_ippm_window
                0x00044c58                set_ippm_thres
                0x00044c74                reset_ippm
                0x00044c88                get_ippm_f_jitter
                0x00044cac                get_ippm_r_jitter
                0x00044cd0                get_ippm_f_ipdv
                0x00044cf4                get_ippm_r_ipdv
                0x00044d18                get_ippm_f_ipdv_99_9
                0x00044d3c                get_ippm_r_ipdv_99_9
                0x00044d60                get_ippm_f_thres_prob
                0x00044d84                get_ippm_r_thres_prob
                0x00044da8                ztie_calc
                0x000456ec                init_ztie
                0x000458f0                tdev_calc
                0x00045e04                init_tdev
                0x00045e5c                update_rfe_phy
                0x00049914                init_rfe_phy
                0x00049bec                start_rfe_phy
                0x0004a3c4                init_rm
 .text          0x0004a510      0x400 ../common/lib/libsymm_mpc8313_PtpGpsSe.a(clk_acq_gps.o)
                0x0004a510                detilt
 .text          0x0004a910     0xc238 ../common/lib/libsymm_mpc8313_PtpGpsSe.a(clk_input_gps.o)
                0x0004a910                update_input_stats
                0x000515a8                init_ipp
                0x000529b8                min_valid
                0x00053650                update_input_stats_phy
                0x0005625c                init_ipp_phy
 .text          0x00056b48        0x0 ../common/lib/libsymm_mpc8313_PtpGpsSe.a(clk_main_gps.o)
 .text          0x00056b48     0x3328 ../common/lib/libsymm_mpc8313_PtpGpsSe.a(sc_ptp_servo_gps.o)
                0x00056b48                SC_ServoConfig
                0x00056cec                SC_VerInfo
                0x00056d64                SC_ClkIpdvConfig
                0x00056f2c                SC_ClkIpdvGet
                0x000570e0                SC_GetPtpPerformance
                0x000574f0                SC_ClkIpdvClrCtrs
                0x00057508                SC_GetServoStatus
                0x0005754c                Get_Freq_Corr
                0x0005761c                Get_Freq_Corr_Factory
                0x00057674                Get_Bridge_Time
                0x000576b0                Get_Access_Transport
                0x000576ec                Get_LO_Type
                0x00057728                Try_SC_SystemTimeSet
                0x00057768                SC_goodPacketRstCounter
                0x00057798                Is_PTP_Mode_Standard
                0x000577dc                Is_PTP_Mode_Inband
                0x0005781c                SC_GetServoConfig
                0x0005785c                Transfer_PTP_data_now
                0x00058604                Transfer_Phasor_data_now
                0x000589f0                Transfer_PTP_data_to_servo
                0x00058b30                CLK_Init_PTP_Tranfer_Queue
                0x00058bf4                SC_TimestampPairToServo
                0x00058d34                ServoIndextoPhasorArrayIndex
                0x00058d74                SC_TimeMeasToServo
                0x0005940c                SetTimestampThreshold
                0x00059448                Set_Timestamp_Offset
                0x00059478                Sync_Using_PTP
                0x000594a8                Sync_Using_GPS
                0x000594d8                Sync_Using_RED
                0x00059508                Check_and_Sync_Using_GPS
                0x0005996c                Check_and_Sync_Using_RED
                0x00059c08                Was_Time_Adjusted
                0x00059c30                Set_Time_Adjusted_Flag
                0x00059c60                Clear_Time_Adjusted_Flag
                0x00059c90                Get_RTD_1sec_min
                0x00059cd8                Is_Sync_LOS
                0x00059d00                SC_SyncPhaseThreshold
                0x00059dd8                SC_SyncPhaseNow
                0x00059e04                Get_Load_Mode
 .text          0x00059e70      0xf50 ../common/lib/libsymm_mpc8313_PtpGpsSe.a(sc_system_gps.o)
                0x00059e70                SC_InitPtpConfig
                0x0005a208                SC_InitGpsConfig
                0x0005a39c                SC_InitUnicastConfig
                0x0005a598                SC_InitAmtConfig
                0x0005a5dc                SC_InitServoConfig
                0x0005a628                SC_InitConfigComplete
                0x0005a7b8                SC_Run
                0x0005a804                SC_Shutdown
                0x0005a8c8                SC_GetUcMstTbl
                0x0005aac0                SC_GetConfig
                0x0005ac70                SC_GetClkRcvr
                0x0005ace0                SC_GetClkId
                0x0005ad94                Is_InitComplete
 .text          0x0005adc0      0x2f8 ../common/lib/libsymm_mpc8313_PtpGpsSe.a(DBG_gps.o)
                0x0005adc0                SC_DbgConfig
                0x0005af8c                event_printf
                0x0005afd8                debug_printf_function
                0x0005b060                set_debug_print
                0x0005b090                get_debug_print
 .text          0x0005b0b8     0x1c20 ../common/lib/libsymm_mpc8313_PtpGpsSe.a(sc_mnt_gps.o)
                0x0005b2f4                SC_InitMnt
                0x0005b394                SC_CloseMnt
                0x0005b414                SC_PTP_ClkDesc
                0x0005b500                SC_PTP_UsrDesc
                0x0005b60c                SC_PTP_DefaultDs
                0x0005b6f8                SC_PTP_CurrentDs
                0x0005b7e4                SC_PTP_ParentDs
                0x0005b8d0                SC_PTP_TimePropDs
                0x0005b9bc                SC_PTP_PortDs
                0x0005baa8                SC_PTP_Domain
                0x0005bbbc                SC_PTP_AnncIntv
                0x0005bcd0                SC_PTP_AnncRxTimeout
                0x0005bde4                SC_PTP_SyncIntv
                0x0005bef8                SC_PTP_VersionNumber
                0x0005c00c                SC_PTP_EnaPort
                0x0005c0f8                SC_PTP_DisPort
                0x0005c1e4                SC_PTP_Time
                0x0005c2d4                SC_PTP_ClkAccuracy
                0x0005c3c4                SC_PTP_UtcProp
                0x0005c4c4                SC_PTP_TraceProp
                0x0005c5b4                SC_PTP_TimeSclProp
                0x0005c6a8                SC_PTP_UcNegoEnable
                0x0005c7bc                SC_PTP_UCMasterTbl
                0x0005c8d4                SC_PTP_UCMstMaxTblSize
                0x0005c9c0                SC_PTP_AcceptMstTbl
                0x0005cad8                SC_PTP_AcceptMstTblEna
                0x0005cbec                SC_PTP_AcceptMstMaxTblSize
 .text          0x0005ccd8     0x1340 ../common/lib/libsymm_mpc8313_PtpGpsSe.a(THD_gps.o)
                0x0005ccd8                THD_InitTimeRes
                0x0005cd34                THD_Start
                0x0005d1b4                THD_Run
                0x0005d230                THD_Shutdown
                0x0005dec4                THD_InitGpsInterval
 .text          0x0005e018       0x3c ../common/lib/libsymm_mpc8313_PtpGpsSe.a(sc_gps.o)
                0x0005e018                SC_GpsStat
 .text          0x0005e054      0x3f8 ../common/lib/libsymm_mpc8313_PtpGpsSe.a(GPS.o)
                0x0005e054                GPS_Init
                0x0005e264                GPS_Close
                0x0005e2ec                GPS_Main
                0x0005e35c                GPS_Stat
                0x0005e3d4                GPS_Valid
 .text          0x0005e44c      0x11c ../common/lib/libsymm_mpc8313_PtpGpsSe.a(SE.o)
                0x0005e44c                SE_Init
                0x0005e4ec                SE_Close
 .text          0x0005e568      0xcec ../common/lib/libsymm_mpc8313_PtpGpsSe.a(PTP_gps.o)
                0x0005e568                PTP_Init
                0x0005e684                PTP_Close
                0x0005e6f0                PTP_ReadClkDs
                0x0005e78c                PTP_ChgFltCfg
                0x0005e85c                PTP_Main
                0x0005e900                PTP_GetSysTime
                0x0005e928                PTP_SetSysTime
                0x0005e950                PTP_SetSysTimeOffset
                0x0005e9c8                PTP_SetSysTimeOffsSec
                0x0005ea60                PTP_SetError
                0x0005edb4                PTP_GetErrStr
 *fill*         0x0005f254        0x4 00000000
 .text          0x0005f258     0x4798 ../common/lib/libsymm_mpc8313_PtpGpsSe.a(CTLmain_gps.o)
                0x0005f258                CTL_Init
                0x0005f3d0                CTL_Close
                0x0005f4c8                CTL_Task
                0x00060a24                CTL_ResetClockDrift
                0x00060aa0                CTL_GetErrStr
 .text          0x000639f0      0x478 ../common/lib/libsymm_mpc8313_PtpGpsSe.a(CTLflt_gps.o)
                0x000639f0                CTLflt_Init
                0x00063b0c                CTLflt_chgFilter
                0x00063bec                CTLflt_inpMTSD
                0x00063c94                CTLflt_inpSTMD
                0x00063d20                CTLflt_inpP2Pdel
                0x00063dac                CTLflt_inpNewMst
                0x00063e1c                CTLflt_resetFilter
 .text          0x00063e68     0x22e8 ../common/lib/libsymm_mpc8313_PtpGpsSe.a(CTLds_gps.o)
                0x00063e68                CTL_InitClockDS
                0x00063f98                CTL_ResetCurDs
                0x00064008                CTL_InitParentDS
                0x0006413c                CTL_InitFrgnMstDS
                0x000643b0                CTL_ClearFrgnMstDs
                0x0006449c                CTL_UpdtFrgnMstDs
                0x00064c3c                CTL_SetAccpFlagFrgnMstDs
                0x00064e00                CTL_UpdateM1_M2
                0x00064e70                CTL_UpdateMMDlrqIntv
                0x00064f08                CTL_UpdateS1
                0x0006515c                CTL_AmIGrandmaster
                0x0006530c                CTL_SetPDStoGM
                0x00065410                CTL_SetPDSstatistics
                0x000655b0                CTL_ResetPDSstatistics
                0x00065604                CTL_GetActOffs
                0x00066034                CTL_ClearAccpFlagFrgnMstDs
 .text          0x00066150      0x340 ../common/lib/libsymm_mpc8313_PtpGpsSe.a(CLKflt_gps.o)
                0x00066150                SC_ClkFltInit
                0x000661f0                CLKflt_inpMTSD
                0x00066298                CLKflt_inpSTMD
                0x00066338                CLKflt_inpP2Pdel
                0x00066360                CLKflt_inpNewMst
                0x00066388                CLKflt_resetFilter
                0x0006639c                Get_Clear_Counters
                0x00066414                SC_NewGrandmaster
                0x00066428                SC_GetFltCfg
 .text          0x00066490      0xe4c ../common/lib/libsymm_mpc8313_PtpGpsSe.a(SLVdel_gps.o)
                0x00066490                SLV_SetDelReqInt
                0x000664e4                SLV_DelayTask
 .text          0x000672dc      0x2b4 ../common/lib/libsymm_mpc8313_PtpGpsSe.a(SLVdel_queue_gps.o)
                0x000672dc                Put_Delay_Timestamp
                0x00067448                Get_Delay_Timestamp
 .text          0x00067590      0xe20 ../common/lib/libsymm_mpc8313_PtpGpsSe.a(SLVsyn_gps.o)
                0x00067590                SLV_SetSyncInt
                0x0006762c                SLV_SyncTask
 .text          0x000683b0      0x16c ../common/lib/libsymm_mpc8313_PtpGpsSe.a(SLVmain_gps.o)
                0x000683b0                SLV_Init
                0x00068458                SLV_GetErrStr
 .text          0x0006851c     0x1690 ../common/lib/libsymm_mpc8313_PtpGpsSe.a(MNTmain_gps.o)
                0x0006851c                MNT_Init
                0x0006869c                MNT_Task
                0x00068eb8                MNT_GetPTPText
                0x00068f00                MNT_GetTblIdx
                0x00069010                MNT_GenPortLoopData
                0x00069114                MNT_PreInitClear
                0x000692f8                MNT_LockApi
                0x0006932c                MNT_UnlockApi
                0x00069360                MNT_GetErrStr
 .text          0x00069bac     0x39b8 ../common/lib/libsymm_mpc8313_PtpGpsSe.a(MNTapi_gps.o)
                0x00069bac                MNTapi_NullManagement
                0x00069c78                MNTapi_ClkDesc
                0x00069d24                MNTapi_UsrDesc
                0x00069f18                MNTapi_SaveNVolStor
                0x00069fc4                MNTapi_RstNVolStor
                0x0006a070                MNTapi_Initialize
                0x0006a138                MNTapi_FaultLog
                0x0006a1e4                MNTapi_FaultLogReset
                0x0006a290                MNTapi_DefaultDs
                0x0006a33c                MNTapi_CurrentDs
                0x0006a3ec                MNTapi_ParentDs
                0x0006a49c                MNTapi_TimePropDs
                0x0006a54c                MNTapi_PortDs
                0x0006a5fc                MNTapi_Priority1
                0x0006a6fc                MNTapi_Priority2
                0x0006a7fc                MNTapi_Domain
                0x0006a8fc                MNTapi_SlaveOnly
                0x0006aa20                MNTapi_AnncIntv
                0x0006ab24                MNTapi_AnncRxTimeout
                0x0006ac24                MNTapi_SyncIntv
                0x0006ad24                MNTapi_VersionNumber
                0x0006ae24                MNTapi_EnaPort
                0x0006aed4                MNTapi_DisPort
                0x0006af84                MNTapi_Time
                0x0006b0c0                MNTapi_ClkAccuracy
                0x0006b1c0                MNTapi_UtcProp
                0x0006b36c                MNTapi_TraceProp
                0x0006b4d8                MNTapi_TimeSclProp
                0x0006b618                MNTapi_UcNegoEnable
                0x0006b73c                MNTapi_PathTraceList
                0x0006b7ec                MNTapi_PathTraceEna
                0x0006b910                MNTapi_GMClusterTbl
                0x0006bbe4                MNTapi_UCMasterTbl
                0x0006bf6c                MNTapi_UCMstMaxTblSize
                0x0006c01c                MNTapi_AcceptMstTbl
                0x0006c37c                MNTapi_AcceptMstTblEna
                0x0006c4a0                MNTapi_AcceptMstMaxTblSize
                0x0006c550                MNTapi_AltMaster
                0x0006c684                MNTapi_AltTimeOffsEna
                0x0006c7a8                MNTapi_AltTimeOffsName
                0x0006c9ac                MNTapi_AltTimeOffsKey
                0x0006ca5c                MNTapi_AltTimeOffsProp
                0x0006cba8                MNTapi_TCDefaultDs
                0x0006cc54                MNTapi_TCPortDs
                0x0006cd04                MNTapi_PrimaryDomain
                0x0006ce04                MNTapi_DelayMechanism
                0x0006cf00                MNTapi_MinPDelReqIntv
                0x0006d000                MNTapi_GatherAnswers
 .text          0x0006d564     0x2720 ../common/lib/libsymm_mpc8313_PtpGpsSe.a(MNTmsg_gps.o)
                0x0006d564                MNTmsg_HandleGet
                0x0006da58                MNTmsg_HandleSet
                0x0006e638                MNTmsg_HandleCom
                0x0006e964                MNTmsg_GenSetResp
                0x0006e9e4                MNTmsg_GenResponse
                0x0006eb20                MNTmsg_GenAck
                0x0006ec10                MNTmsg_GenStandMMsgErr
                0x0006ed9c                MNTmsg_SendMMErr
                0x0006f060                MNTmsg_SendMMsg
                0x0006f16c                MNTmsg_InitFltRec
                0x0006f1b8                MNTmsg_PutFltRec
 .text          0x0006fc84       0xa0 ../common/lib/libsymm_mpc8313_PtpGpsSe.a(NIFmain_gps.o)
                0x0006fc84                NIF_Init
                0x0006fcdc                NIF_GetIfAddrs
 .text          0x0006fd24     0x1f28 ../common/lib/libsymm_mpc8313_PtpGpsSe.a(NIFtx_gps.o)
                0x0006fd24                NIF_PackHdrFlag
                0x0006fdd8                NIF_PackHdr
                0x0006ff6c                NIF_PackAnncMsg
                0x000700d4                NIF_PackSyncMsg
                0x00070138                NIF_PackFlwUpMsg
                0x0007019c                NIF_PackDelRespMsg
                0x00070244                NIF_PackTlv
                0x00070298                NIF_SendAnnc
                0x00070580                NIF_SendSync
                0x000705f8                NIF_SendFollowUp
                0x00070710                NIF_SendDelayReq
                0x00070788                NIF_SendDelayResp
                0x000708e0                NIF_Send_MntMsg
                0x00070ac4                NIF_Send_Sign
                0x00070c90                NIF_SendRawData
                0x00070cd8                NIF_Set_PTP_subdomain
                0x00070e58                NIF_InitMsgTempls
 *fill*         0x00071c4c        0x4 00000000
 .text          0x00071c50      0x850 ../common/lib/libsymm_mpc8313_PtpGpsSe.a(UCMmain_gps.o)
                0x00071c50                UCM_Init
                0x00071cf8                UCM_initSrvReqList
                0x00071db0                UCM_regServReq
                0x000720fc                UCM_unregServReq
                0x00072158                UCM_SrchSlv
                0x000721f0                UCM_recalcPresc
                0x000722d0                UCM_checkPeriod
                0x0007230c                UCM_RespUcRequest
                0x000723a0                UCM_RespUcCnclAck
                0x00072410                UCM_GetErrStr
 .text          0x000724a0      0xd18 ../common/lib/libsymm_mpc8313_PtpGpsSe.a(DISmain_gps.o)
                0x000724a0                DIS_Init
                0x0007258c                DIS_Task
                0x00072ff0                DIS_GetErrStr
 .text          0x000731b8      0x88c ../common/lib/libsymm_mpc8313_PtpGpsSe.a(DISnet_gps.o)
                0x000731b8                DISnet_Init
                0x000733d4                DISnet_Task
 .text          0x00073a44     0x1278 ../common/lib/libsymm_mpc8313_PtpGpsSe.a(DISrx_gps.o)
                0x00073a44                DIS_DispEvntMsg
                0x00073dd4                DIS_DispGnrlMsg
                0x00074414                DIS_WhoIsReceiver
 .text          0x00074cbc      0x974 ../common/lib/libsymm_mpc8313_PtpGpsSe.a(DIStx_gps.o)
                0x00074cbc                DIS_SendAnnc
                0x00074d24                DIS_SendSync
                0x00074e1c                DIS_SendFollowUp
                0x00074e84                DIS_SendDelayReq
                0x00074f68                DIS_SendDelayResp
                0x0007501c                DIS_Send_MntMsg
                0x00075090                DIS_FwMntMsg
                0x00075214                DIS_FwSignMsg
                0x0007531c                DIS_FwMsg
                0x000753fc                DIS_Send_Sign
                0x00075490                DIS_SendRawData
 .text          0x00075630      0x158 ../common/lib/libsymm_mpc8313_PtpGpsSe.a(MSTmain_gps.o)
                0x00075630                MST_Init
                0x000756d8                MST_GetErrStr
 .text          0x00075788      0x390 ../common/lib/libsymm_mpc8313_PtpGpsSe.a(MSTsyn_gps.o)
                0x00075788                MST_SetSyncInt
                0x000757e8                MSTsyn_Task
 .text          0x00075b18      0x31c ../common/lib/libsymm_mpc8313_PtpGpsSe.a(MSTannc_gps.o)
                0x00075b18                MST_SetAnncInt
                0x00075b60                MSTannc_Task
 .text          0x00075e34      0x2c4 ../common/lib/libsymm_mpc8313_PtpGpsSe.a(CIFmain_gps.o)
                0x00075e34                SC_Lock_Time
                0x00075e68                CIF_Init
                0x00075eb4                CIF_Close
                0x00075ee0                CIF_AdjClkDrift
                0x00075f04                CIF_GetTimeStamp
                0x00075f64                CIF_SetSysTime
                0x00075fdc                CIF_SetSysUtcOffset
                0x00076018                CIF_GetErrStr
 .text          0x000760f8      0x248 ../common/lib/libsymm_mpc8313_PtpGpsSe.a(TSUmain_gps.o)
                0x000760f8                TSU_Init
                0x000761b0                TSU_Close
                0x000761ec                TSU_GetRxTimeStamp
                0x00076254                TSU_GetTxTimeStamp
                0x000762ac                TSU_GetErrStr
 .text          0x00076340      0x7f0 ../common/lib/libsymm_mpc8313_PtpGpsSe.a(FIO_gps.o)
                0x00076340                FIO_InitCfgDflt
                0x0007665c                FIO_ReadConfig
                0x00076684                FIO_WriteConfig
                0x000766a8                FIO_CheckCfg
                0x00076a4c                FIO_ReadClkRcvr
                0x00076a74                FIO_WriteClkRcvr
                0x00076a98                FIO_ReadUcMstTbl
                0x00076ac0                FIO_WriteUcMstTbl
                0x00076ae4                FIO_ReadFltCfg
                0x00076b0c                FIO_WriteFltCfg
 .text          0x00076b30      0x180 ../common/lib/libsymm_mpc8313_PtpGpsSe.a(FIOerr_gps.o)
                0x00076b30                FIO_GetErrStr
 .text          0x00076cb0      0x2b4 ../common/lib/libsymm_mpc8313_PtpGpsSe.a(FLTno_gps.o)
                0x00076cb0                FLTno_Init
                0x00076d50                FLTno_inpMTSD
                0x00076de8                FLTno_inpSTMD
                0x00076e90                FLTno_inpP2Pdel
                0x00076ef8                FLTno_inpNewMst
                0x00076f20                FLTno_resetFilter
 .text          0x00076f64      0x5fc ../common/lib/libsymm_mpc8313_PtpGpsSe.a(tod_gps.o)
                0x00076f64                GenerateTimecode
 .text          0x00077560      0x4a0 ../common/lib/libsymm_mpc8313_PtpGpsSe.a(TGT_gps.o)
                0x00077560                TGT_Init
                0x000775b0                TGT_Close
                0x000775dc                TGT_printf
                0x00077694                TGT_printSyncData
                0x00077880                TGT_printDrift
 .text          0x00077a00     0x1450 ../common/lib/libsymm_mpc8313_PtpGpsSe.a(SISmpool_gps.o)
                0x00077a00                SIS_MemPoolInit
                0x00077dd4                SIS_Alloc
                0x00077e68                SIS_AllocHdl
                0x0007839c                SIS_Free
                0x00078940                SIS_MemPoolQuery
                0x00078a08                SIS_MemPoolDebugPrint
 .text          0x00078e50      0x650 ../common/lib/libsymm_mpc8313_PtpGpsSe.a(SISmain_gps.o)
                0x00078e50                SIS_Init
                0x00078f54                SIS_TaskExeReq
                0x00078fd4                SIS_TimerStart
                0x000790e0                SIS_TimerStop
                0x0007915c                SIS_TimerStsRead
                0x00079208                SIS_GetTime
                0x00079230                SIS_Scheduler
                0x0007937c                SIS_TimerServiceRoutine
 .text          0x000794a0      0xf7c ../common/lib/libsymm_mpc8313_PtpGpsSe.a(SISevent_gps.o)
                0x000794a0                SIS_EventInit
                0x00079630                SIS_EventSet
                0x00079b0c                SIS_EventGet
                0x0007a184                SIS_EventQuery
 .text          0x0007a41c     0x40a0 ../common/lib/libsymm_mpc8313_PtpGpsSe.a(SISmbox_gps.o)
                0x0007a41c                SIS_MboxInit
                0x0007adb0                SIS_MboxPut
                0x0007ca98                SIS_MboxWListAdd
                0x0007cbbc                SIS_MboxGet
                0x0007d300                SIS_MboxRelease
                0x0007e110                SIS_MboxQuery
 .text          0x0007e4bc     0x1498 ../common/lib/libsymm_mpc8313_PtpGpsSe.a(GOE_gps.o)
                0x0007e4bc                GOE_ntoh16
                0x0007e508                GOE_ntoh32
                0x0007e57c                GOE_ntoh48
                0x0007e628                GOE_ntoh64
                0x0007e6f0                GOE_hton16
                0x0007e738                GOE_hton32
                0x0007e7a4                GOE_hton48
                0x0007e838                GOE_hton64
                0x0007e8f4                GOE_NetAddrToStr
                0x0007e994                GOE_NetStrToAddr
                0x0007ea28                GOE_LockStack
                0x0007ea50                GOE_UnLockStack
                0x0007ea7c                GOE_Init
                0x0007eebc                GOE_Close
                0x0007ef54                GOE_GetSockHdl
                0x0007ef80                GOE_InitMcConn
                0x0007efa8                GOE_CloseMcConn
                0x0007efc8                GOE_InitUcConn
                0x0007efe4                GOE_CloseUcConn
                0x0007eff8                GOE_getInbLat
                0x0007f088                GOE_getOutbLat
                0x0007f118                GOE_GetIfAddrs
                0x0007f1d0                GOE_SendMsg
                0x0007f2d8                GOE_RecvMsg
                0x0007f3a8                GOE_ReadFile
                0x0007f3f8                GOE_WriteFile
                0x0007f434                GOE_GetNetIfNum
                0x0007f494                GOE_GetErrStr
 .text          0x0007f954      0x224 ../common/lib/libsymm_mpc8313_PtpGpsSe.a(GN_GPS_Task.o)
                0x0007f954                GN_GPS_Task_Start
                0x0007f980                GN_GPS_Task_Stop
                0x0007f99c                GN_GPS_Task_Run
                0x0007f9b8                GN_GPS_Valid
                0x0007fab8                GN_GPS_Stat
 .text          0x0007fb78     0x13d0 ../common/lib/libsymm_mpc8313_PtpGpsSe.a(UCDmain_gps.o)
                0x0007fb78                UCD_Init
                0x0007fc48                UCD_Close
                0x0007fc94                UCD_Task
                0x00080364                UCD_SendUcCancel
                0x00080420                UCD_GetErrStr
                0x00080e80                UCD_SetAnncInt
                0x00080ee4                UCD_SetSyncInt
 .text          0x00080f48     0x1730 ../common/lib/libsymm_mpc8313_PtpGpsSe.a(PTPmath_gps.o)
                0x00080f48                PTP_AddTmSTmpTmStmp
                0x00081038                PTP_SubtrTmStmpTmStmp
                0x00081198                PTP_SubtrTmIntvTmStmp
                0x000813d0                PTP_AddTmIntvTmStmp
                0x00081448                PTP_sqrt_U64
                0x00081574                PTP_LowPass
                0x000815fc                PTP_PIctr
                0x000817bc                PTP_stdDev
                0x00081b8c                PTP_getTimeIntv
                0x00081cc8                PTP_logDualis
                0x00081d30                PTP_scaleVar
                0x00081d84                PTP_GetAllenVar
                0x00082268                PTP_PowerOf2
                0x000822e0                PTP_CompareClkId
                0x00082354                PTP_ComparePortId
                0x000823f8                PTP_CompPortAddr
                0x00082518                PTP_AddnCheckI64
                0x00082608                PTP_ChkRngSetExtr
 .text          0x00082678     0x1ee8 ../common/lib/libsymm_mpc8313_PtpGpsSe.a(CTLbmc_gps.o)
                0x00082678                CTL_StateDecisionEvent
 .text          0x00084560     0x1c80 ../common/lib/libsymm_mpc8313_PtpGpsSe.a(MNTget_gps.o)
                0x00084560                MNTget_ClkDesc
                0x00084b24                MNTget_UsrDesc
                0x00084c20                MNTget_DefaultDs
                0x00084e18                MNTget_CurrentDs
                0x00084eac                MNTget_ParentDs
                0x000850a4                MNTget_TimePropDs
                0x000852b8                MNTget_PortDs
                0x000855dc                MNTget_Priority1
                0x00085638                MNTget_Priority2
                0x00085694                MNTget_Domain
                0x000856f0                MNTget_SlaveOnly
                0x00085784                MNTget_AnncIntv
                0x00085814                MNTget_AnncRxTimeout
                0x000858a0                MNTget_SyncIntv
                0x00085930                MNTget_VersionNumber
                0x000859c4                MNTget_Time
                0x00085a60                MNTget_ClkAccuracy
                0x00085ac0                MNTget_UtcProp
                0x00085c00                MNTget_TraceProp
                0x00085ce0                MNTget_TimeSclProp
                0x00085d94                MNTget_UcNegoEnable
                0x00085dfc                MNTget_UCMasterTbl
                0x00086020                MNTget_UCMstMaxTblSize
                0x00086058                MNTget_DelayMechanism
                0x000860e8                MNTget_MinPDelReqIntv
                0x00086178                MNTget_PrivateStatus
 .text          0x000861e0      0x7f0 ../common/lib/libsymm_mpc8313_PtpGpsSe.a(NIFrx_gps.o)
                0x000861e0                NIF_RecvMsg
                0x0008634c                NIF_UnPackHdrPortId
                0x000863ac                NIF_UnPackTrgtPortId
                0x0008640c                NIF_UnPackReqPortId
                0x0008646c                NIF_UnPackHdr
                0x00086594                NIF_UnPackAnncMsg
                0x000866f0                NIF_UnPackSyncMsg
                0x00086758                NIF_UnPackFlwUpMsg
                0x000867c0                NIF_UnPackDelRespMsg
                0x0008683c                NIF_UnPackMntMsg
 .text          0x000869d0      0x4e0 ../common/lib/libsymm_mpc8313_PtpGpsSe.a(UCMannc_gps.o)
                0x000869d0                UCMann_Task
 .text          0x00086eb0      0x52c ../common/lib/libsymm_mpc8313_PtpGpsSe.a(UCMsyn_gps.o)
                0x00086eb0                UCMsyn_Task
                0x00087394                UCM_IsSyncSrvGranted
 .text          0x000873dc      0x1c4 ../common/lib/libsymm_mpc8313_PtpGpsSe.a(UCMdel_gps.o)
                0x000873dc                UCMdel_Task
 .text          0x000875a0      0x34c ../common/lib/libsymm_mpc8313_PtpGpsSe.a(MSTdel_gps.o)
                0x000875a0                MSTdel_Task
 *fill*         0x000878ec        0x4 00000000
 .text          0x000878f0     0x16c0 ../common/lib/libsymm_mpc8313_PtpGpsSe.a(sc_ptp_mgmt_gps.o)
                0x000878f0                mgmt_tlv_packet_32
                0x0008794c                mgmt_tlv_packet_16
                0x000879a8                mgmt_tlv_packet_8
                0x00087a00                mgmt_tlv_packet_string
                0x00087ac4                update_ptp_mgmt_status
                0x00088438                SC_GetPrivateStatus
 .text          0x00088fb0       0x9c ../common/lib/libsymm_mpc8313_PtpGpsSe.a(sc_util_gps.o)
                0x00088fb0                SC_TimeToDate
 .text          0x0008904c      0x20c /opt/sourcery-arm-201203/bin/../lib/gcc/arm-none-linux-gnueabi/4.6.3/libgcc.a(_udivsi3.o)
                0x0008904c                __udivsi3
                0x0008904c                __aeabi_uidiv
                0x00089238                __aeabi_uidivmod
 .text          0x00089258      0x240 /opt/sourcery-arm-201203/bin/../lib/gcc/arm-none-linux-gnueabi/4.6.3/libgcc.a(_divsi3.o)
                0x00089258                __divsi3
                0x00089258                __aeabi_idiv
                0x00089478                __aeabi_idivmod
 .text          0x00089498      0x3b8 /opt/sourcery-arm-201203/bin/../lib/gcc/arm-none-linux-gnueabi/4.6.3/libgcc.a(_arm_addsubdf3.o)
                0x00089498                __aeabi_drsub
                0x000894a0                __subdf3
                0x000894a0                __aeabi_dsub
                0x000894a4                __adddf3
                0x000894a4                __aeabi_dadd
                0x00089750                __aeabi_ui2d
                0x00089750                __floatunsidf
                0x00089774                __floatsidf
                0x00089774                __aeabi_i2d
                0x0008979c                __aeabi_f2d
                0x0008979c                __extendsfdf2
                0x000897dc                __floatundidf
                0x000897dc                __aeabi_ul2d
                0x000897f0                __floatdidf
                0x000897f0                __aeabi_l2d
 .text          0x00089850      0x470 /opt/sourcery-arm-201203/bin/../lib/gcc/arm-none-linux-gnueabi/4.6.3/libgcc.a(_arm_muldivdf3.o)
                0x00089850                __muldf3
                0x00089850                __aeabi_dmul
                0x00089abc                __divdf3
                0x00089abc                __aeabi_ddiv
 .text          0x00089cc0      0x12c /opt/sourcery-arm-201203/bin/../lib/gcc/arm-none-linux-gnueabi/4.6.3/libgcc.a(_arm_cmpdf2.o)
                0x00089cc0                __gtdf2
                0x00089cc0                __gedf2
                0x00089cc8                __ltdf2
                0x00089cc8                __ledf2
                0x00089cd0                __cmpdf2
                0x00089cd0                __nedf2
                0x00089cd0                __eqdf2
                0x00089d58                __aeabi_cdrcmple
                0x00089d74                __aeabi_cdcmple
                0x00089d74                __aeabi_cdcmpeq
                0x00089d88                __aeabi_dcmpeq
                0x00089d9c                __aeabi_dcmplt
                0x00089db0                __aeabi_dcmple
                0x00089dc4                __aeabi_dcmpge
                0x00089dd8                __aeabi_dcmpgt
 .text          0x00089dec       0x5c /opt/sourcery-arm-201203/bin/../lib/gcc/arm-none-linux-gnueabi/4.6.3/libgcc.a(_arm_fixdfsi.o)
                0x00089dec                __fixdfsi
                0x00089dec                __aeabi_d2iz
 .text          0x00089e48       0x54 /opt/sourcery-arm-201203/bin/../lib/gcc/arm-none-linux-gnueabi/4.6.3/libgcc.a(_arm_fixunsdfsi.o)
                0x00089e48                __fixunsdfsi
                0x00089e48                __aeabi_d2uiz
 .text          0x00089e9c       0xa0 /opt/sourcery-arm-201203/bin/../lib/gcc/arm-none-linux-gnueabi/4.6.3/libgcc.a(_arm_truncdfsf2.o)
                0x00089e9c                __aeabi_d2f
                0x00089e9c                __truncdfsf2
 .text          0x00089f3c       0xfc /opt/sourcery-arm-201203/bin/../lib/gcc/arm-none-linux-gnueabi/4.6.3/libgcc.a(_arm_cmpsf2.o)
                0x00089f3c                __gesf2
                0x00089f3c                __gtsf2
                0x00089f44                __lesf2
                0x00089f44                __ltsf2
                0x00089f4c                __cmpsf2
                0x00089f4c                __eqsf2
                0x00089f4c                __nesf2
                0x00089fb0                __aeabi_cfrcmple
                0x00089fc0                __aeabi_cfcmple
                0x00089fc0                __aeabi_cfcmpeq
                0x00089fd4                __aeabi_fcmpeq
                0x00089fe8                __aeabi_fcmplt
                0x00089ffc                __aeabi_fcmple
                0x0008a010                __aeabi_fcmpge
                0x0008a024                __aeabi_fcmpgt
 .text          0x0008a038       0x44 /opt/sourcery-arm-201203/bin/../lib/gcc/arm-none-linux-gnueabi/4.6.3/libgcc.a(_aeabi_ldivmod.o)
                0x0008a038                __aeabi_ldivmod
 .text          0x0008a07c       0x3c /opt/sourcery-arm-201203/bin/../lib/gcc/arm-none-linux-gnueabi/4.6.3/libgcc.a(_aeabi_uldivmod.o)
                0x0008a07c                __aeabi_uldivmod
 .text          0x0008a0b8       0x10 /opt/sourcery-arm-201203/bin/../lib/gcc/arm-none-linux-gnueabi/4.6.3/libgcc.a(_dvmd_lnx.o)
                0x0008a0b8                __aeabi_idiv0
                0x0008a0b8                __aeabi_ldiv0
 .text          0x0008a0c8       0x44 /opt/sourcery-arm-201203/bin/../lib/gcc/arm-none-linux-gnueabi/4.6.3/libgcc.a(_fixdfdi.o)
                0x0008a0c8                __fixdfdi
                0x0008a0c8                __aeabi_d2lz
 .text          0x0008a10c       0x68 /opt/sourcery-arm-201203/bin/../lib/gcc/arm-none-linux-gnueabi/4.6.3/libgcc.a(_fixunsdfdi.o)
                0x0008a10c                __aeabi_d2ulz
                0x0008a10c                __fixunsdfdi
 .text          0x0008a174       0x78 /opt/sourcery-arm-201203/bin/../lib/gcc/arm-none-linux-gnueabi/4.6.3/libgcc.a(bpabi.o)
                0x0008a174                __gnu_ldivmod_helper
                0x0008a1b0                __gnu_uldivmod_helper
 .text          0x0008a1ec      0x4d0 /opt/sourcery-arm-201203/bin/../lib/gcc/arm-none-linux-gnueabi/4.6.3/libgcc.a(_divdi3.o)
                0x0008a1ec                __divdi3
 .text          0x0008a6bc      0x474 /opt/sourcery-arm-201203/bin/../lib/gcc/arm-none-linux-gnueabi/4.6.3/libgcc.a(_udivdi3.o)
                0x0008a6bc                __udivdi3
 .text          0x0008ab30       0xcc /opt/sourcery-arm-201203/bin/../arm-none-linux-gnueabi/libc/usr/lib/libc_nonshared.a(elf-init.oS)
                0x0008ab30                __libc_csu_init
                0x0008abf8                __libc_csu_fini
 .text          0x0008abfc        0x0 /opt/sourcery-arm-201203/bin/../lib/gcc/arm-none-linux-gnueabi/4.6.3/crtend.o
 .text          0x0008abfc        0x0 /opt/sourcery-arm-201203/bin/../arm-none-linux-gnueabi/libc/usr/lib/crtn.o
 *(.gnu.warning)
 *(.glue_7t)
 .glue_7t       0x00000000        0x0 linker stubs
 *(.glue_7)
 .glue_7        0x00000000        0x0 linker stubs
 *(.vfp11_veneer)
 .vfp11_veneer  0x00000000        0x0 linker stubs
 *(.v4_bx)
 .v4_bx         0x00000000        0x0 linker stubs

.fini           0x0008abfc        0x8
 *(.fini)
 .fini          0x0008abfc        0x4 /opt/sourcery-arm-201203/bin/../arm-none-linux-gnueabi/libc/usr/lib/crti.o
                0x0008abfc                _fini
 .fini          0x0008ac00        0x4 /opt/sourcery-arm-201203/bin/../arm-none-linux-gnueabi/libc/usr/lib/crtn.o
                0x0008ac04                PROVIDE (__etext, .)
                0x0008ac04                PROVIDE (_etext, .)
                0x0008ac04                PROVIDE (etext, .)

.rodata         0x0008ac08     0xa81c
 *(.rodata .rodata.* .gnu.linkonce.r.*)
 .rodata.cst4   0x0008ac08        0x4 /opt/sourcery-arm-201203/bin/../arm-none-linux-gnueabi/libc/usr/lib/crt1.o
                0x0008ac08                _IO_stdin_used
 .rodata        0x0008ac0c       0x10 ./natsemi_util/epl_1588_gps.o
 .rodata.str1.4
                0x0008ac1c       0x9a ./natsemi_util/epl_1588_gps.o
                                 0x9c (size before relaxing)
 *fill*         0x0008acb6        0x2 00
 .rodata        0x0008acb8       0x50 ./clock_if/sc_clock_if_gps.o
 .rodata.str1.4
                0x0008ad08      0x1b8 ./clock_if/sc_clock_if_gps.o
 .rodata        0x0008aec0       0x88 ../common/network_if/sc_network_if_gps.o
 .rodata.str1.4
                0x0008af48      0x116 ../common/network_if/sc_network_if_gps.o
                                0x118 (size before relaxing)
 *fill*         0x0008b05e        0x2 00
 .rodata.str1.4
                0x0008b060       0xc8 ../common/log/sc_log_gps.o
                                 0xcc (size before relaxing)
 .rodata        0x0008b128      0x1c0 ../common/user_if/sc_ui_gps.o
 .rodata.str1.4
                0x0008b2e8     0x2fb5 ../common/user_if/sc_ui_gps.o
                               0x303c (size before relaxing)
 *fill*         0x0008e29d        0x3 00
 .rodata        0x0008e2a0       0xe8 ../common/config_if/sc_readconfig_gps.o
 .rodata.str1.4
                0x0008e388      0x988 ../common/config_if/sc_readconfig_gps.o
                                0x99c (size before relaxing)
 .rodata        0x0008ed10       0x74 ../common/main_gps.o
 .rodata.str1.4
                0x0008ed84      0x674 ../common/main_gps.o
                                0x770 (size before relaxing)
 .rodata        0x0008f3f8      0x504 ../common/lib/libsymm_mpc8313_PtpGpsSe.a(sc_chan_gps.o)
 .rodata        0x0008f8fc      0x12c ../common/lib/libsymm_mpc8313_PtpGpsSe.a(sc_alarms_gps.o)
 .rodata        0x0008fa28     0x2a24 ../common/lib/libsymm_mpc8313_PtpGpsSe.a(CLK_gps.o)
 .rodata        0x0009244c      0x8d8 ../common/lib/libsymm_mpc8313_PtpGpsSe.a(clk_ana_gps.o)
 .rodata        0x00092d24       0x24 ../common/lib/libsymm_mpc8313_PtpGpsSe.a(clk_acq_gps.o)
 .rodata        0x00092d48      0x8d0 ../common/lib/libsymm_mpc8313_PtpGpsSe.a(clk_input_gps.o)
 .rodata        0x00093618      0x33c ../common/lib/libsymm_mpc8313_PtpGpsSe.a(sc_ptp_servo_gps.o)
                0x00093618                kOscOffsetLimit
 .rodata        0x00093954        0x4 ../common/lib/libsymm_mpc8313_PtpGpsSe.a(sc_system_gps.o)
 .rodata        0x00093958      0x2cc ../common/lib/libsymm_mpc8313_PtpGpsSe.a(THD_gps.o)
 .rodata        0x00093c24      0x184 ../common/lib/libsymm_mpc8313_PtpGpsSe.a(PTP_gps.o)
 .rodata        0x00093da8      0x4f4 ../common/lib/libsymm_mpc8313_PtpGpsSe.a(CTLmain_gps.o)
 .rodata        0x0009429c       0x9c ../common/lib/libsymm_mpc8313_PtpGpsSe.a(SLVmain_gps.o)
 .rodata        0x00094338      0x1a8 ../common/lib/libsymm_mpc8313_PtpGpsSe.a(MNTmain_gps.o)
 .rodata        0x000944e0      0x174 ../common/lib/libsymm_mpc8313_PtpGpsSe.a(MNTmsg_gps.o)
 .rodata        0x00094654       0x6c ../common/lib/libsymm_mpc8313_PtpGpsSe.a(UCMmain_gps.o)
 .rodata        0x000946c0      0x11c ../common/lib/libsymm_mpc8313_PtpGpsSe.a(DISmain_gps.o)
 .rodata        0x000947dc       0x84 ../common/lib/libsymm_mpc8313_PtpGpsSe.a(MSTmain_gps.o)
 .rodata        0x00094860       0xb0 ../common/lib/libsymm_mpc8313_PtpGpsSe.a(CIFmain_gps.o)
 .rodata        0x00094910       0x50 ../common/lib/libsymm_mpc8313_PtpGpsSe.a(TSUmain_gps.o)
 .rodata        0x00094960      0x2cc ../common/lib/libsymm_mpc8313_PtpGpsSe.a(FIO_gps.o)
 .rodata        0x00094c2c      0x254 ../common/lib/libsymm_mpc8313_PtpGpsSe.a(FIOerr_gps.o)
 .rodata        0x00094e80       0xbc ../common/lib/libsymm_mpc8313_PtpGpsSe.a(TGT_gps.o)
 .rodata        0x00094f3c      0x174 ../common/lib/libsymm_mpc8313_PtpGpsSe.a(SISmpool_gps.o)
 .rodata        0x000950b0       0xa8 ../common/lib/libsymm_mpc8313_PtpGpsSe.a(SISmain_gps.o)
 .rodata        0x00095158       0x44 ../common/lib/libsymm_mpc8313_PtpGpsSe.a(SISevent_gps.o)
 .rodata        0x0009519c       0x60 ../common/lib/libsymm_mpc8313_PtpGpsSe.a(SISmbox_gps.o)
 .rodata        0x000951fc      0x104 ../common/lib/libsymm_mpc8313_PtpGpsSe.a(GOE_gps.o)
 .rodata        0x00095300       0x38 ../common/lib/libsymm_mpc8313_PtpGpsSe.a(GN_GPS_Task.o)
 .rodata        0x00095338       0x58 ../common/lib/libsymm_mpc8313_PtpGpsSe.a(UCDmain_gps.o)
 .rodata        0x00095390        0x8 ../common/lib/libsymm_mpc8313_PtpGpsSe.a(PTPmath_gps.o)
 .rodata        0x00095398       0x44 ../common/lib/libsymm_mpc8313_PtpGpsSe.a(MNTget_gps.o)
 .rodata        0x000953dc       0x24 ../common/lib/libsymm_mpc8313_PtpGpsSe.a(sc_ptp_mgmt_gps.o)
 .rodata        0x00095400       0x24 ../common/lib/libsymm_mpc8313_PtpGpsSe.a(sc_util_gps.o)

.rodata1
 *(.rodata1)

.ARM.extab      0x00095424     0x1878
 *(.ARM.extab* .gnu.linkonce.armextab.*)
 .ARM.extab     0x00095424        0x0 /opt/sourcery-arm-201203/bin/../arm-none-linux-gnueabi/libc/usr/lib/crt1.o
 .ARM.extab     0x00095424        0xc /opt/sourcery-arm-201203/bin/../lib/gcc/arm-none-linux-gnueabi/4.6.3/crtbegin.o
 .ARM.extab     0x00095430       0x24 ./natsemi_util/epl_1588_gps.o
 .ARM.extab     0x00095454        0x0 ./timestamper_if/sc_timestamp_gps.o
 .ARM.extab     0x00095454       0x18 ./clock_if/sc_clock_if_gps.o
 .ARM.extab     0x0009546c       0x18 ../common/network_if/sc_network_if_gps.o
 .ARM.extab     0x00095484        0xc ../common/log/sc_log_gps.o
 .ARM.extab     0x00095490       0x30 ../common/user_if/sc_ui_gps.o
 .ARM.extab     0x000954c0        0x0 ../common/config_if/sc_readconfig_gps.o
 .ARM.extab     0x000954c0        0x0 ../common/chan_processing_if/sc_SSM_handling_gps.o
 .ARM.extab     0x000954c0       0x30 ../common/main_gps.o
 .ARM.extab.text.startup
                0x000954f0        0xc ../common/main_gps.o
 .ARM.extab     0x000954fc        0x0 ../common/se_if/sc_se_if.o
 .ARM.extab     0x000954fc       0x24 ../common/gps_if/sc_gps_if.o
 .ARM.extab     0x00095520      0x1e0 ../common/lib/libsymm_mpc8313_PtpGpsSe.a(sc_chan_gps.o)
 .ARM.extab     0x00095700      0x27c ../common/lib/libsymm_mpc8313_PtpGpsSe.a(CLK_gps.o)
 .ARM.extab     0x0009597c       0x84 ../common/lib/libsymm_mpc8313_PtpGpsSe.a(clk_ana_gps.o)
 .ARM.extab     0x00095a00        0xc ../common/lib/libsymm_mpc8313_PtpGpsSe.a(clk_acq_gps.o)
 .ARM.extab     0x00095a0c       0x18 ../common/lib/libsymm_mpc8313_PtpGpsSe.a(clk_input_gps.o)
 .ARM.extab     0x00095a24       0xf0 ../common/lib/libsymm_mpc8313_PtpGpsSe.a(sc_ptp_servo_gps.o)
 .ARM.extab     0x00095b14       0x84 ../common/lib/libsymm_mpc8313_PtpGpsSe.a(sc_system_gps.o)
 .ARM.extab     0x00095b98       0x24 ../common/lib/libsymm_mpc8313_PtpGpsSe.a(DBG_gps.o)
 .ARM.extab     0x00095bbc      0x15c ../common/lib/libsymm_mpc8313_PtpGpsSe.a(sc_mnt_gps.o)
 .ARM.extab     0x00095d18       0x6c ../common/lib/libsymm_mpc8313_PtpGpsSe.a(THD_gps.o)
 .ARM.extab     0x00095d84        0xc ../common/lib/libsymm_mpc8313_PtpGpsSe.a(sc_gps.o)
 .ARM.extab     0x00095d90       0x3c ../common/lib/libsymm_mpc8313_PtpGpsSe.a(GPS.o)
 .ARM.extab     0x00095dcc       0x18 ../common/lib/libsymm_mpc8313_PtpGpsSe.a(SE.o)
 .ARM.extab     0x00095de4       0x84 ../common/lib/libsymm_mpc8313_PtpGpsSe.a(PTP_gps.o)
 .ARM.extab     0x00095e68       0x9c ../common/lib/libsymm_mpc8313_PtpGpsSe.a(CTLmain_gps.o)
 .ARM.extab     0x00095f04       0x48 ../common/lib/libsymm_mpc8313_PtpGpsSe.a(CTLflt_gps.o)
 .ARM.extab     0x00095f4c       0xc0 ../common/lib/libsymm_mpc8313_PtpGpsSe.a(CTLds_gps.o)
 .ARM.extab     0x0009600c       0x24 ../common/lib/libsymm_mpc8313_PtpGpsSe.a(CLKflt_gps.o)
 .ARM.extab     0x00096030       0x18 ../common/lib/libsymm_mpc8313_PtpGpsSe.a(SLVdel_gps.o)
 .ARM.extab     0x00096048       0x18 ../common/lib/libsymm_mpc8313_PtpGpsSe.a(SLVdel_queue_gps.o)
 .ARM.extab     0x00096060       0x30 ../common/lib/libsymm_mpc8313_PtpGpsSe.a(SLVsyn_gps.o)
 .ARM.extab     0x00096090        0xc ../common/lib/libsymm_mpc8313_PtpGpsSe.a(SLVmain_gps.o)
 .ARM.extab     0x0009609c       0x6c ../common/lib/libsymm_mpc8313_PtpGpsSe.a(MNTmain_gps.o)
 .ARM.extab     0x00096108      0x258 ../common/lib/libsymm_mpc8313_PtpGpsSe.a(MNTapi_gps.o)
 .ARM.extab     0x00096360       0xa8 ../common/lib/libsymm_mpc8313_PtpGpsSe.a(MNTmsg_gps.o)
 .ARM.extab     0x00096408       0x18 ../common/lib/libsymm_mpc8313_PtpGpsSe.a(NIFmain_gps.o)
 .ARM.extab     0x00096420      0x114 ../common/lib/libsymm_mpc8313_PtpGpsSe.a(NIFtx_gps.o)
 .ARM.extab     0x00096534       0x60 ../common/lib/libsymm_mpc8313_PtpGpsSe.a(UCMmain_gps.o)
 .ARM.extab     0x00096594       0x24 ../common/lib/libsymm_mpc8313_PtpGpsSe.a(DISmain_gps.o)
 .ARM.extab     0x000965b8       0x18 ../common/lib/libsymm_mpc8313_PtpGpsSe.a(DISnet_gps.o)
 .ARM.extab     0x000965d0       0x54 ../common/lib/libsymm_mpc8313_PtpGpsSe.a(DISrx_gps.o)
 .ARM.extab     0x00096624       0x90 ../common/lib/libsymm_mpc8313_PtpGpsSe.a(DIStx_gps.o)
 .ARM.extab     0x000966b4        0xc ../common/lib/libsymm_mpc8313_PtpGpsSe.a(MSTmain_gps.o)
 .ARM.extab     0x000966c0       0x18 ../common/lib/libsymm_mpc8313_PtpGpsSe.a(MSTsyn_gps.o)
 .ARM.extab     0x000966d8       0x18 ../common/lib/libsymm_mpc8313_PtpGpsSe.a(MSTannc_gps.o)
 .ARM.extab     0x000966f0       0x30 ../common/lib/libsymm_mpc8313_PtpGpsSe.a(CIFmain_gps.o)
 .ARM.extab     0x00096720       0x24 ../common/lib/libsymm_mpc8313_PtpGpsSe.a(TSUmain_gps.o)
 .ARM.extab     0x00096744       0x48 ../common/lib/libsymm_mpc8313_PtpGpsSe.a(FIO_gps.o)
 .ARM.extab     0x0009678c        0x0 ../common/lib/libsymm_mpc8313_PtpGpsSe.a(FIOerr_gps.o)
 .ARM.extab     0x0009678c       0x18 ../common/lib/libsymm_mpc8313_PtpGpsSe.a(FLTno_gps.o)
 .ARM.extab     0x000967a4        0xc ../common/lib/libsymm_mpc8313_PtpGpsSe.a(tod_gps.o)
 .ARM.extab     0x000967b0       0x48 ../common/lib/libsymm_mpc8313_PtpGpsSe.a(TGT_gps.o)
 .ARM.extab     0x000967f8       0x3c ../common/lib/libsymm_mpc8313_PtpGpsSe.a(SISmpool_gps.o)
 .ARM.extab     0x00096834       0x48 ../common/lib/libsymm_mpc8313_PtpGpsSe.a(SISmain_gps.o)
 .ARM.extab     0x0009687c       0x24 ../common/lib/libsymm_mpc8313_PtpGpsSe.a(SISevent_gps.o)
 .ARM.extab     0x000968a0       0x3c ../common/lib/libsymm_mpc8313_PtpGpsSe.a(SISmbox_gps.o)
 .ARM.extab     0x000968dc       0xc0 ../common/lib/libsymm_mpc8313_PtpGpsSe.a(GOE_gps.o)
 .ARM.extab     0x0009699c        0x0 ../common/lib/libsymm_mpc8313_PtpGpsSe.a(GN_GPS_Task.o)
 .ARM.extab     0x0009699c       0x90 ../common/lib/libsymm_mpc8313_PtpGpsSe.a(UCDmain_gps.o)
 .ARM.extab     0x00096a2c       0xa8 ../common/lib/libsymm_mpc8313_PtpGpsSe.a(PTPmath_gps.o)
 .ARM.extab     0x00096ad4       0x48 ../common/lib/libsymm_mpc8313_PtpGpsSe.a(CTLbmc_gps.o)
 .ARM.extab     0x00096b1c       0x90 ../common/lib/libsymm_mpc8313_PtpGpsSe.a(MNTget_gps.o)
 .ARM.extab     0x00096bac       0x78 ../common/lib/libsymm_mpc8313_PtpGpsSe.a(NIFrx_gps.o)
 .ARM.extab     0x00096c24        0xc ../common/lib/libsymm_mpc8313_PtpGpsSe.a(UCMannc_gps.o)
 .ARM.extab     0x00096c30       0x18 ../common/lib/libsymm_mpc8313_PtpGpsSe.a(UCMsyn_gps.o)
 .ARM.extab     0x00096c48        0xc ../common/lib/libsymm_mpc8313_PtpGpsSe.a(UCMdel_gps.o)
 .ARM.extab     0x00096c54        0xc ../common/lib/libsymm_mpc8313_PtpGpsSe.a(MSTdel_gps.o)
 .ARM.extab     0x00096c60       0x30 ../common/lib/libsymm_mpc8313_PtpGpsSe.a(sc_ptp_mgmt_gps.o)
 .ARM.extab     0x00096c90        0xc ../common/lib/libsymm_mpc8313_PtpGpsSe.a(sc_util_gps.o)
 .ARM.extab     0x00096c9c        0x0 /opt/sourcery-arm-201203/bin/../lib/gcc/arm-none-linux-gnueabi/4.6.3/libgcc.a(_fixdfdi.o)
 .ARM.extab     0x00096c9c        0x0 /opt/sourcery-arm-201203/bin/../lib/gcc/arm-none-linux-gnueabi/4.6.3/libgcc.a(_fixunsdfdi.o)
 .ARM.extab     0x00096c9c        0x0 /opt/sourcery-arm-201203/bin/../lib/gcc/arm-none-linux-gnueabi/4.6.3/libgcc.a(bpabi.o)
 .ARM.extab     0x00096c9c        0x0 /opt/sourcery-arm-201203/bin/../lib/gcc/arm-none-linux-gnueabi/4.6.3/libgcc.a(_divdi3.o)
 .ARM.extab     0x00096c9c        0x0 /opt/sourcery-arm-201203/bin/../lib/gcc/arm-none-linux-gnueabi/4.6.3/libgcc.a(_udivdi3.o)
 .ARM.extab     0x00096c9c        0x0 /opt/sourcery-arm-201203/bin/../arm-none-linux-gnueabi/libc/usr/lib/libc_nonshared.a(elf-init.oS)
                0x00096c9c                PROVIDE (__exidx_start, .)

.ARM.exidx      0x00096c9c     0x16e8
 *(.ARM.exidx* .gnu.linkonce.armexidx.*)
 .ARM.exidx     0x00096ca4        0x8 /opt/sourcery-arm-201203/bin/../arm-none-linux-gnueabi/libc/usr/lib/crt1.o
 .ARM.exidx     0x00096cac       0x10 /opt/sourcery-arm-201203/bin/../lib/gcc/arm-none-linux-gnueabi/4.6.3/crtbegin.o
 .ARM.exidx     0x00096cbc      0x110 ./natsemi_util/epl_1588_gps.o
                                0x148 (size before relaxing)
 .ARM.exidx     0x00096dcc       0x18 ./timestamper_if/sc_timestamp_gps.o
 .ARM.exidx     0x00096de4       0x68 ./clock_if/sc_clock_if_gps.o
                                 0xa0 (size before relaxing)
 .ARM.exidx     0x00096e4c       0x80 ../common/network_if/sc_network_if_gps.o
                                 0x90 (size before relaxing)
 .ARM.exidx     0x00096ecc       0x20 ../common/log/sc_log_gps.o
 .ARM.exidx     0x00096eec       0x48 ../common/user_if/sc_ui_gps.o
                                 0x58 (size before relaxing)
 .ARM.exidx     0x00096f34       0x78 ../common/config_if/sc_readconfig_gps.o
                                 0xf0 (size before relaxing)
 .ARM.exidx     0x00096fac       0x20 ../common/chan_processing_if/sc_SSM_handling_gps.o
                                 0x28 (size before relaxing)
 .ARM.exidx     0x00096fcc       0x58 ../common/main_gps.o
 .ARM.exidx.text.startup
                0x00096c9c        0x8 ../common/main_gps.o
 .ARM.exidx     0x00097024        0x8 ../common/se_if/sc_se_if.o
                                 0x10 (size before relaxing)
 .ARM.exidx     0x0009702c       0x28 ../common/gps_if/sc_gps_if.o
                                 0x30 (size before relaxing)
 .ARM.exidx     0x00097054      0x190 ../common/lib/libsymm_mpc8313_PtpGpsSe.a(sc_chan_gps.o)
                                0x1f0 (size before relaxing)
 .ARM.exidx     0x000971e4      0x270 ../common/lib/libsymm_mpc8313_PtpGpsSe.a(CLK_gps.o)
                                0x340 (size before relaxing)
 .ARM.exidx     0x00097454       0x88 ../common/lib/libsymm_mpc8313_PtpGpsSe.a(clk_ana_gps.o)
                                 0xf0 (size before relaxing)
 .ARM.exidx     0x000974dc        0x8 ../common/lib/libsymm_mpc8313_PtpGpsSe.a(clk_acq_gps.o)
 .ARM.exidx     0x000974e4       0x30 ../common/lib/libsymm_mpc8313_PtpGpsSe.a(clk_input_gps.o)
 .ARM.exidx     0x00097514       0xd0 ../common/lib/libsymm_mpc8313_PtpGpsSe.a(sc_ptp_servo_gps.o)
                                0x140 (size before relaxing)
 .ARM.exidx     0x000975e4       0x78 ../common/lib/libsymm_mpc8313_PtpGpsSe.a(sc_system_gps.o)
 .ARM.exidx     0x0009765c       0x20 ../common/lib/libsymm_mpc8313_PtpGpsSe.a(DBG_gps.o)
                                 0x28 (size before relaxing)
 .ARM.exidx     0x0009767c       0xf0 ../common/lib/libsymm_mpc8313_PtpGpsSe.a(sc_mnt_gps.o)
 .ARM.exidx     0x0009776c       0x50 ../common/lib/libsymm_mpc8313_PtpGpsSe.a(THD_gps.o)
 .ARM.exidx     0x000977bc        0x8 ../common/lib/libsymm_mpc8313_PtpGpsSe.a(sc_gps.o)
 .ARM.exidx     0x000977c4       0x28 ../common/lib/libsymm_mpc8313_PtpGpsSe.a(GPS.o)
 .ARM.exidx     0x000977ec       0x10 ../common/lib/libsymm_mpc8313_PtpGpsSe.a(SE.o)
 .ARM.exidx     0x000977fc       0x58 ../common/lib/libsymm_mpc8313_PtpGpsSe.a(PTP_gps.o)
 .ARM.exidx     0x00097854       0x70 ../common/lib/libsymm_mpc8313_PtpGpsSe.a(CTLmain_gps.o)
 .ARM.exidx     0x000978c4       0x38 ../common/lib/libsymm_mpc8313_PtpGpsSe.a(CTLflt_gps.o)
 .ARM.exidx     0x000978fc       0xa0 ../common/lib/libsymm_mpc8313_PtpGpsSe.a(CTLds_gps.o)
                                 0xb0 (size before relaxing)
 .ARM.exidx     0x0009799c       0x20 ../common/lib/libsymm_mpc8313_PtpGpsSe.a(CLKflt_gps.o)
                                 0x48 (size before relaxing)
 .ARM.exidx     0x000979bc       0x10 ../common/lib/libsymm_mpc8313_PtpGpsSe.a(SLVdel_gps.o)
 .ARM.exidx     0x000979cc       0x10 ../common/lib/libsymm_mpc8313_PtpGpsSe.a(SLVdel_queue_gps.o)
 .ARM.exidx     0x000979dc       0x20 ../common/lib/libsymm_mpc8313_PtpGpsSe.a(SLVsyn_gps.o)
 .ARM.exidx     0x000979fc       0x10 ../common/lib/libsymm_mpc8313_PtpGpsSe.a(SLVmain_gps.o)
 .ARM.exidx     0x00097a0c       0x58 ../common/lib/libsymm_mpc8313_PtpGpsSe.a(MNTmain_gps.o)
                                 0x70 (size before relaxing)
 .ARM.exidx     0x00097a64      0x190 ../common/lib/libsymm_mpc8313_PtpGpsSe.a(MNTapi_gps.o)
 .ARM.exidx     0x00097bf4       0x80 ../common/lib/libsymm_mpc8313_PtpGpsSe.a(MNTmsg_gps.o)
                                 0x88 (size before relaxing)
 .ARM.exidx     0x00097c74       0x10 ../common/lib/libsymm_mpc8313_PtpGpsSe.a(NIFmain_gps.o)
 .ARM.exidx     0x00097c84       0xc0 ../common/lib/libsymm_mpc8313_PtpGpsSe.a(NIFtx_gps.o)
 .ARM.exidx     0x00097d44       0x50 ../common/lib/libsymm_mpc8313_PtpGpsSe.a(UCMmain_gps.o)
 .ARM.exidx     0x00097d94       0x18 ../common/lib/libsymm_mpc8313_PtpGpsSe.a(DISmain_gps.o)
 .ARM.exidx     0x00097dac       0x10 ../common/lib/libsymm_mpc8313_PtpGpsSe.a(DISnet_gps.o)
 .ARM.exidx     0x00097dbc       0x38 ../common/lib/libsymm_mpc8313_PtpGpsSe.a(DISrx_gps.o)
 .ARM.exidx     0x00097df4       0x60 ../common/lib/libsymm_mpc8313_PtpGpsSe.a(DIStx_gps.o)
 .ARM.exidx     0x00097e54       0x10 ../common/lib/libsymm_mpc8313_PtpGpsSe.a(MSTmain_gps.o)
 .ARM.exidx     0x00097e64       0x10 ../common/lib/libsymm_mpc8313_PtpGpsSe.a(MSTsyn_gps.o)
 .ARM.exidx     0x00097e74       0x10 ../common/lib/libsymm_mpc8313_PtpGpsSe.a(MSTannc_gps.o)
 .ARM.exidx     0x00097e84       0x38 ../common/lib/libsymm_mpc8313_PtpGpsSe.a(CIFmain_gps.o)
                                 0x40 (size before relaxing)
 .ARM.exidx     0x00097ebc       0x28 ../common/lib/libsymm_mpc8313_PtpGpsSe.a(TSUmain_gps.o)
 .ARM.exidx     0x00097ee4       0x50 ../common/lib/libsymm_mpc8313_PtpGpsSe.a(FIO_gps.o)
 .ARM.exidx     0x00097f34        0x0 ../common/lib/libsymm_mpc8313_PtpGpsSe.a(FIOerr_gps.o)
                                  0x8 (size before relaxing)
 .ARM.exidx     0x00097f34       0x20 ../common/lib/libsymm_mpc8313_PtpGpsSe.a(FLTno_gps.o)
                                 0x30 (size before relaxing)
 .ARM.exidx     0x00097f54        0x8 ../common/lib/libsymm_mpc8313_PtpGpsSe.a(tod_gps.o)
 .ARM.exidx     0x00097f5c       0x30 ../common/lib/libsymm_mpc8313_PtpGpsSe.a(TGT_gps.o)
 .ARM.exidx     0x00097f8c       0x30 ../common/lib/libsymm_mpc8313_PtpGpsSe.a(SISmpool_gps.o)
 .ARM.exidx     0x00097fbc       0x40 ../common/lib/libsymm_mpc8313_PtpGpsSe.a(SISmain_gps.o)
 .ARM.exidx     0x00097ffc       0x18 ../common/lib/libsymm_mpc8313_PtpGpsSe.a(SISevent_gps.o)
                                 0x20 (size before relaxing)
 .ARM.exidx     0x00098014       0x30 ../common/lib/libsymm_mpc8313_PtpGpsSe.a(SISmbox_gps.o)
 .ARM.exidx     0x00098044       0xa0 ../common/lib/libsymm_mpc8313_PtpGpsSe.a(GOE_gps.o)
                                 0xf8 (size before relaxing)
 .ARM.exidx     0x000980e4        0x8 ../common/lib/libsymm_mpc8313_PtpGpsSe.a(GN_GPS_Task.o)
                                 0x40 (size before relaxing)
 .ARM.exidx     0x000980ec       0x70 ../common/lib/libsymm_mpc8313_PtpGpsSe.a(UCDmain_gps.o)
                                 0x78 (size before relaxing)
 .ARM.exidx     0x0009815c       0x88 ../common/lib/libsymm_mpc8313_PtpGpsSe.a(PTPmath_gps.o)
                                 0x90 (size before relaxing)
 .ARM.exidx     0x000981e4       0x30 ../common/lib/libsymm_mpc8313_PtpGpsSe.a(CTLbmc_gps.o)
 .ARM.exidx     0x00098214       0x80 ../common/lib/libsymm_mpc8313_PtpGpsSe.a(MNTget_gps.o)
                                 0xd0 (size before relaxing)
 .ARM.exidx     0x00098294       0x50 ../common/lib/libsymm_mpc8313_PtpGpsSe.a(NIFrx_gps.o)
 .ARM.exidx     0x000982e4        0x8 ../common/lib/libsymm_mpc8313_PtpGpsSe.a(UCMannc_gps.o)
 .ARM.exidx     0x000982ec       0x10 ../common/lib/libsymm_mpc8313_PtpGpsSe.a(UCMsyn_gps.o)
 .ARM.exidx     0x000982fc        0x8 ../common/lib/libsymm_mpc8313_PtpGpsSe.a(UCMdel_gps.o)
 .ARM.exidx     0x00098304        0x8 ../common/lib/libsymm_mpc8313_PtpGpsSe.a(MSTdel_gps.o)
 .ARM.exidx     0x0009830c       0x28 ../common/lib/libsymm_mpc8313_PtpGpsSe.a(sc_ptp_mgmt_gps.o)
                                 0x30 (size before relaxing)
 .ARM.exidx     0x00098334       0x10 ../common/lib/libsymm_mpc8313_PtpGpsSe.a(sc_util_gps.o)
                                  0x8 (size before relaxing)
 .ARM.exidx     0x00098344        0x8 /opt/sourcery-arm-201203/bin/../lib/gcc/arm-none-linux-gnueabi/4.6.3/libgcc.a(_fixdfdi.o)
 .ARM.exidx     0x0009834c        0x8 /opt/sourcery-arm-201203/bin/../lib/gcc/arm-none-linux-gnueabi/4.6.3/libgcc.a(_fixunsdfdi.o)
 .ARM.exidx     0x00098354        0x8 /opt/sourcery-arm-201203/bin/../lib/gcc/arm-none-linux-gnueabi/4.6.3/libgcc.a(bpabi.o)
                                 0x10 (size before relaxing)
 .ARM.exidx     0x0009835c        0x8 /opt/sourcery-arm-201203/bin/../lib/gcc/arm-none-linux-gnueabi/4.6.3/libgcc.a(_divdi3.o)
 .ARM.exidx     0x00098364        0x8 /opt/sourcery-arm-201203/bin/../lib/gcc/arm-none-linux-gnueabi/4.6.3/libgcc.a(_udivdi3.o)
 .ARM.exidx     0x0009836c       0x18 /opt/sourcery-arm-201203/bin/../arm-none-linux-gnueabi/libc/usr/lib/libc_nonshared.a(elf-init.oS)
                                 0x10 (size before relaxing)
                0x00098384                PROVIDE (__exidx_end, .)

.eh_frame_hdr
 *(.eh_frame_hdr)
 *(.eh_frame_entry .eh_frame_entry.*)

.eh_frame       0x00098384        0x4
 *(.eh_frame)
 .eh_frame      0x00098384        0x4 /opt/sourcery-arm-201203/bin/../lib/gcc/arm-none-linux-gnueabi/4.6.3/crtend.o
 *(.eh_frame.*)

.gcc_except_table
 *(.gcc_except_table .gcc_except_table.*)

.gnu_extab
 *(.gnu_extab*)

.exception_ranges
 *(.exception_ranges .exception_ranges*)
                0x00098388                . = (ALIGN (0x8000) - ((0x8000 - .) & 0x7fff))
                0x000a0388                . = DATA_SEGMENT_ALIGN (0x8000, 0x1000)

.eh_frame
 *(.eh_frame)
 *(.eh_frame.*)

.gnu_extab
 *(.gnu_extab)

.gcc_except_table
 *(.gcc_except_table .gcc_except_table.*)

.exception_ranges
 *(.exception_ranges .exception_ranges*)

.tdata
 *(.tdata .tdata.* .gnu.linkonce.td.*)

.tbss
 *(.tbss .tbss.* .gnu.linkonce.tb.*)
 *(.tcommon)

.preinit_array  0x000a0388        0x0
                0x000a0388                PROVIDE (__preinit_array_start, .)
 *(.preinit_array)
                0x000a0388                PROVIDE (__preinit_array_end, .)

.init_array     0x000a0388        0x4
                0x000a0388                PROVIDE (__init_array_start, .)
 *(SORT(.init_array.*))
 *(.init_array)
 .init_array    0x000a0388        0x4 /opt/sourcery-arm-201203/bin/../lib/gcc/arm-none-linux-gnueabi/4.6.3/crtbegin.o
                0x000a038c                PROVIDE (__init_array_end, .)

.fini_array     0x000a038c        0x4
                0x000a038c                PROVIDE (__fini_array_start, .)
 *(SORT(.fini_array.*))
 *(.fini_array)
 .fini_array    0x000a038c        0x4 /opt/sourcery-arm-201203/bin/../lib/gcc/arm-none-linux-gnueabi/4.6.3/crtbegin.o
                0x000a0390                PROVIDE (__fini_array_end, .)

.ctors
 *crtbegin.o(.ctors)
 *crtbegin?.o(.ctors)
 *(EXCLUDE_FILE(*crtend?.o *crtend.o) .ctors)
 *(SORT(.ctors.*))
 *(.ctors)

.dtors
 *crtbegin.o(.dtors)
 *crtbegin?.o(.dtors)
 *(EXCLUDE_FILE(*crtend?.o *crtend.o) .dtors)
 *(SORT(.dtors.*))
 *(.dtors)

.jcr            0x000a0390        0x4
 *(.jcr)
 .jcr           0x000a0390        0x0 /opt/sourcery-arm-201203/bin/../lib/gcc/arm-none-linux-gnueabi/4.6.3/crtbegin.o
 .jcr           0x000a0390        0x4 /opt/sourcery-arm-201203/bin/../lib/gcc/arm-none-linux-gnueabi/4.6.3/crtend.o

.data.rel.ro    0x000a0394       0x50
 *(.data.rel.ro.local* .gnu.linkonce.d.rel.ro.local.*)
 *(.data.rel.ro* .gnu.linkonce.d.rel.ro.*)
 .data.rel.ro   0x000a0394       0x50 ../common/lib/libsymm_mpc8313_PtpGpsSe.a(SISmain_gps.o)

.dynamic        0x000a03e4      0x118
 *(.dynamic)
 .dynamic       0x000a03e4      0x118 /opt/sourcery-arm-201203/bin/../arm-none-linux-gnueabi/libc/usr/lib/crt1.o
                0x000a03e4                _DYNAMIC
                0x000a04fc                . = DATA_SEGMENT_RELRO_END (., 0x0)

.got            0x000a04fc      0x6ac
 *(.got.plt)
 .got.plt       0x000a04fc      0x174 /opt/sourcery-arm-201203/bin/../arm-none-linux-gnueabi/libc/usr/lib/crt1.o
                0x000a04fc                _GLOBAL_OFFSET_TABLE_
 *(.igot.plt)
 .igot.plt      0x00000000        0x0 /opt/sourcery-arm-201203/bin/../arm-none-linux-gnueabi/libc/usr/lib/crt1.o
 *(.got)
 .got           0x000a0670      0x538 /opt/sourcery-arm-201203/bin/../arm-none-linux-gnueabi/libc/usr/lib/crt1.o
 *(.igot)

.data           0x000a0ba8      0xbe4
                0x000a0ba8                PROVIDE (__data_start, .)
 *(.data .data.* .gnu.linkonce.d.*)
 .data          0x000a0ba8        0x4 /opt/sourcery-arm-201203/bin/../arm-none-linux-gnueabi/libc/usr/lib/crt1.o
                0x000a0ba8                data_start
                0x000a0ba8                __data_start
 .data          0x000a0bac        0x0 /opt/sourcery-arm-201203/bin/../arm-none-linux-gnueabi/libc/usr/lib/crti.o
 .data          0x000a0bac        0x4 /opt/sourcery-arm-201203/bin/../lib/gcc/arm-none-linux-gnueabi/4.6.3/crtbegin.o
                0x000a0bac                __dso_handle
 .data          0x000a0bb0       0x1c ./natsemi_util/epl_1588_gps.o
 .data          0x000a0bcc        0x0 ./timestamper_if/sc_timestamp_gps.o
 .data          0x000a0bcc        0xc ./clock_if/sc_clock_if_gps.o
 .data          0x000a0bd8        0x2 ../common/network_if/sc_network_if_gps.o
 .data          0x000a0bda        0x0 ../common/log/sc_log_gps.o
 *fill*         0x000a0bda        0x2 00
 .data          0x000a0bdc        0x4 ../common/user_if/sc_ui_gps.o
 .data          0x000a0be0       0x40 ../common/config_if/sc_readconfig_gps.o
                0x000a0be0                kAccessTransportName
 .data          0x000a0c20        0x0 ../common/chan_processing_if/sc_SSM_handling_gps.o
 .data          0x000a0c20        0x4 ../common/main_gps.o
 .data          0x000a0c24        0x0 ../common/se_if/sc_se_if.o
 .data          0x000a0c24        0x0 ../common/gps_if/sc_gps_if.o
 .data          0x000a0c24       0x74 ../common/lib/libsymm_mpc8313_PtpGpsSe.a(sc_chan_gps.o)
 .data          0x000a0c98        0x0 ../common/lib/libsymm_mpc8313_PtpGpsSe.a(sc_alarms_gps.o)
 .data.rel.local
                0x000a0c98       0x78 ../common/lib/libsymm_mpc8313_PtpGpsSe.a(sc_alarms_gps.o)
                0x000a0c98                sc_alarm_lst
 .data          0x000a0d10      0x140 ../common/lib/libsymm_mpc8313_PtpGpsSe.a(CLK_gps.o)
                0x000a0d98                dynamic_forward
                0x000a0da0                dynamic_reverse
 .data          0x000a0e50       0x10 ../common/lib/libsymm_mpc8313_PtpGpsSe.a(clk_ana_gps.o)
 .data          0x000a0e60       0x10 ../common/lib/libsymm_mpc8313_PtpGpsSe.a(clk_acq_gps.o)
 .data          0x000a0e70        0x4 ../common/lib/libsymm_mpc8313_PtpGpsSe.a(clk_input_gps.o)
 .data.rel      0x000a0e74        0x8 ../common/lib/libsymm_mpc8313_PtpGpsSe.a(clk_input_gps.o)
 .data          0x000a0e7c       0xf4 ../common/lib/libsymm_mpc8313_PtpGpsSe.a(clk_main_gps.o)
                0x000a0e7c                jam_threshold
                0x000a0e80                fll_settle
                0x000a0e84                min_oper_thres_f
                0x000a0e88                min_oper_thres_r
                0x000a0e8c                min_oper_thres_small_f
                0x000a0e90                min_oper_thres_small_r
                0x000a0e94                min_oper_thres_large_f
                0x000a0e98                min_oper_thres_large_r
                0x000a0e9c                min_oper_thres_phy
                0x000a0eb8                ctp_phy
                0x000a0ebc                cluster_inc_phy
                0x000a0ed8                detilt_blank
                0x000a0ef4                min_oper_thres_oper
                0x000a0ef8                step_thres_oper
                0x000a0efc                ofw_start_f
                0x000a0f00                next_ofw_start_f
                0x000a0f04                ofw_gain_f
                0x000a0f08                ofw_cur_dir_f
                0x000a0f0c                ofw_prev_dir_f
                0x000a0f10                ofw_start_r
                0x000a0f14                next_ofw_start_r
                0x000a0f18                ofw_gain_r
                0x000a0f1c                ofw_cur_dir_r
                0x000a0f20                ofw_prev_dir_r
                0x000a0f24                start_in_progress
                0x000a0f28                start_in_progress_PTP
                0x000a0f2c                ctp
                0x000a0f30                cluster_width_max
                0x000a0f34                cluster_inc_f
                0x000a0f38                cluster_inc_r
                0x000a0f3c                cluster_inc
                0x000a0f40                mode_width_max_oper
                0x000a0f44                min_density_thres_oper
                0x000a0f48                lvm_f
                0x000a0f4c                lvm_r
                0x000a0f50                rmfirst_f
                0x000a0f54                rmfirst_r
                0x000a0f58                rm_size_oper
                0x000a0f5c                rfe_turbo_flag
                0x000a0f60                turbo_cluster_for
                0x000a0f64                turbo_cluster_rev
                0x000a0f68                N_init_rfe
                0x000a0f6c                N_init_rfe_phy
 .data          0x000a0f70       0x60 ../common/lib/libsymm_mpc8313_PtpGpsSe.a(sc_ptp_servo_gps.o)
                0x000a0f74                max_timestamp_threshold
                0x000a0fcc                i_fpgaFd
 .data          0x000a0fd0      0x158 ../common/lib/libsymm_mpc8313_PtpGpsSe.a(sc_system_gps.o)
                0x000a10fc                w_leaseDuration
 .data          0x000a1128        0xc ../common/lib/libsymm_mpc8313_PtpGpsSe.a(DBG_gps.o)
 .data          0x000a1134        0x0 ../common/lib/libsymm_mpc8313_PtpGpsSe.a(sc_mnt_gps.o)
 .data          0x000a1134        0xc ../common/lib/libsymm_mpc8313_PtpGpsSe.a(THD_gps.o)
                0x000a1134                l_timeResNsec
 .data          0x000a1140        0x0 ../common/lib/libsymm_mpc8313_PtpGpsSe.a(sc_gps.o)
 .data          0x000a1140        0x8 ../common/lib/libsymm_mpc8313_PtpGpsSe.a(GPS.o)
 .data.rel      0x000a1148       0x28 ../common/lib/libsymm_mpc8313_PtpGpsSe.a(GPS.o)
 .data          0x000a1170        0x0 ../common/lib/libsymm_mpc8313_PtpGpsSe.a(SE.o)
 .data          0x000a1170        0x0 ../common/lib/libsymm_mpc8313_PtpGpsSe.a(PTP_gps.o)
 .data          0x000a1170        0x1 ../common/lib/libsymm_mpc8313_PtpGpsSe.a(CTLmain_gps.o)
 .data          0x000a1171        0x0 ../common/lib/libsymm_mpc8313_PtpGpsSe.a(CTLflt_gps.o)
 .data          0x000a1171        0x0 ../common/lib/libsymm_mpc8313_PtpGpsSe.a(CTLds_gps.o)
 .data          0x000a1171        0x0 ../common/lib/libsymm_mpc8313_PtpGpsSe.a(CLKflt_gps.o)
 .data          0x000a1171        0x0 ../common/lib/libsymm_mpc8313_PtpGpsSe.a(SLVdel_gps.o)
 .data          0x000a1171        0x0 ../common/lib/libsymm_mpc8313_PtpGpsSe.a(SLVdel_queue_gps.o)
 .data          0x000a1171        0x0 ../common/lib/libsymm_mpc8313_PtpGpsSe.a(SLVsyn_gps.o)
 .data          0x000a1171        0x0 ../common/lib/libsymm_mpc8313_PtpGpsSe.a(SLVmain_gps.o)
 *fill*         0x000a1171        0x3 00
 .data          0x000a1174      0x188 ../common/lib/libsymm_mpc8313_PtpGpsSe.a(MNTmain_gps.o)
                0x000a1174                s_MntInfoTbl
 .data          0x000a12fc        0x0 ../common/lib/libsymm_mpc8313_PtpGpsSe.a(MNTapi_gps.o)
 .data          0x000a12fc        0x0 ../common/lib/libsymm_mpc8313_PtpGpsSe.a(MNTmsg_gps.o)
 .data          0x000a12fc        0x0 ../common/lib/libsymm_mpc8313_PtpGpsSe.a(NIFmain_gps.o)
 .data          0x000a12fc        0x0 ../common/lib/libsymm_mpc8313_PtpGpsSe.a(NIFtx_gps.o)
 .data          0x000a12fc        0x0 ../common/lib/libsymm_mpc8313_PtpGpsSe.a(UCMmain_gps.o)
 .data          0x000a12fc        0x0 ../common/lib/libsymm_mpc8313_PtpGpsSe.a(DISmain_gps.o)
 .data          0x000a12fc        0x0 ../common/lib/libsymm_mpc8313_PtpGpsSe.a(DISnet_gps.o)
 .data          0x000a12fc        0x8 ../common/lib/libsymm_mpc8313_PtpGpsSe.a(DISrx_gps.o)
 .data          0x000a1304        0x0 ../common/lib/libsymm_mpc8313_PtpGpsSe.a(DIStx_gps.o)
 .data          0x000a1304        0x0 ../common/lib/libsymm_mpc8313_PtpGpsSe.a(MSTmain_gps.o)
 .data          0x000a1304        0x0 ../common/lib/libsymm_mpc8313_PtpGpsSe.a(MSTsyn_gps.o)
 .data          0x000a1304        0x0 ../common/lib/libsymm_mpc8313_PtpGpsSe.a(MSTannc_gps.o)
 .data          0x000a1304        0x0 ../common/lib/libsymm_mpc8313_PtpGpsSe.a(CIFmain_gps.o)
 .data          0x000a1304        0x0 ../common/lib/libsymm_mpc8313_PtpGpsSe.a(TSUmain_gps.o)
 .data          0x000a1304        0x0 ../common/lib/libsymm_mpc8313_PtpGpsSe.a(FIO_gps.o)
 *fill*         0x000a1304        0x4 00
 .data.rel.local
                0x000a1308      0x2e0 ../common/lib/libsymm_mpc8313_PtpGpsSe.a(FIO_gps.o)
                0x000a1308                as_defDsCfg
                0x000a1378                as_tcDefDsCfg
                0x000a13a8                as_profCfg
                0x000a1428                as_portCfg
                0x000a1498                as_minFltPrm
                0x000a14b8                as_estFltPrm
                0x000a14f8                as_clkRcrv
                0x000a1548                as_const
                0x000a15a8                as_ucMst
 .data.rel      0x000a15e8       0xe0 ../common/lib/libsymm_mpc8313_PtpGpsSe.a(FIO_gps.o)
                0x000a15e8                as_cfgRom
                0x000a1648                as_fltParam
                0x000a1688                as_ucMstTbl
 .data          0x000a16c8        0x0 ../common/lib/libsymm_mpc8313_PtpGpsSe.a(FIOerr_gps.o)
 .data          0x000a16c8        0x0 ../common/lib/libsymm_mpc8313_PtpGpsSe.a(FLTno_gps.o)
 .data          0x000a16c8        0x2 ../common/lib/libsymm_mpc8313_PtpGpsSe.a(tod_gps.o)
 .data          0x000a16ca        0x0 ../common/lib/libsymm_mpc8313_PtpGpsSe.a(TGT_gps.o)
 .data          0x000a16ca        0x0 ../common/lib/libsymm_mpc8313_PtpGpsSe.a(SISmpool_gps.o)
 .data          0x000a16ca        0x0 ../common/lib/libsymm_mpc8313_PtpGpsSe.a(SISmain_gps.o)
 .data          0x000a16ca        0x0 ../common/lib/libsymm_mpc8313_PtpGpsSe.a(SISevent_gps.o)
 .data          0x000a16ca        0x0 ../common/lib/libsymm_mpc8313_PtpGpsSe.a(SISmbox_gps.o)
 *fill*         0x000a16ca        0x2 00
 .data.rel.local
                0x000a16cc       0x98 ../common/lib/libsymm_mpc8313_PtpGpsSe.a(SISmbox_gps.o)
 .data          0x000a1764        0x0 ../common/lib/libsymm_mpc8313_PtpGpsSe.a(GOE_gps.o)
 .data          0x000a1764        0x0 ../common/lib/libsymm_mpc8313_PtpGpsSe.a(GN_GPS_Task.o)
 .data          0x000a1764        0xc ../common/lib/libsymm_mpc8313_PtpGpsSe.a(UCDmain_gps.o)
 .data          0x000a1770        0x0 ../common/lib/libsymm_mpc8313_PtpGpsSe.a(PTPmath_gps.o)
 .data          0x000a1770        0x0 ../common/lib/libsymm_mpc8313_PtpGpsSe.a(CTLbmc_gps.o)
 .data          0x000a1770        0x0 ../common/lib/libsymm_mpc8313_PtpGpsSe.a(MNTget_gps.o)
 .data          0x000a1770        0x0 ../common/lib/libsymm_mpc8313_PtpGpsSe.a(NIFrx_gps.o)
 .data          0x000a1770        0x1 ../common/lib/libsymm_mpc8313_PtpGpsSe.a(UCMannc_gps.o)
 .data          0x000a1771        0x1 ../common/lib/libsymm_mpc8313_PtpGpsSe.a(UCMsyn_gps.o)
 .data          0x000a1772        0x0 ../common/lib/libsymm_mpc8313_PtpGpsSe.a(UCMdel_gps.o)
 .data          0x000a1772        0x0 ../common/lib/libsymm_mpc8313_PtpGpsSe.a(MSTdel_gps.o)
 *fill*         0x000a1772        0x2 00
 .data          0x000a1774       0x18 ../common/lib/libsymm_mpc8313_PtpGpsSe.a(sc_ptp_mgmt_gps.o)
 .data          0x000a178c        0x0 ../common/lib/libsymm_mpc8313_PtpGpsSe.a(sc_util_gps.o)
 .data          0x000a178c        0x0 /opt/sourcery-arm-201203/bin/../lib/gcc/arm-none-linux-gnueabi/4.6.3/libgcc.a(_udivsi3.o)
 .data          0x000a178c        0x0 /opt/sourcery-arm-201203/bin/../lib/gcc/arm-none-linux-gnueabi/4.6.3/libgcc.a(_divsi3.o)
 .data          0x000a178c        0x0 /opt/sourcery-arm-201203/bin/../lib/gcc/arm-none-linux-gnueabi/4.6.3/libgcc.a(_arm_addsubdf3.o)
 .data          0x000a178c        0x0 /opt/sourcery-arm-201203/bin/../lib/gcc/arm-none-linux-gnueabi/4.6.3/libgcc.a(_arm_muldivdf3.o)
 .data          0x000a178c        0x0 /opt/sourcery-arm-201203/bin/../lib/gcc/arm-none-linux-gnueabi/4.6.3/libgcc.a(_arm_cmpdf2.o)
 .data          0x000a178c        0x0 /opt/sourcery-arm-201203/bin/../lib/gcc/arm-none-linux-gnueabi/4.6.3/libgcc.a(_arm_fixdfsi.o)
 .data          0x000a178c        0x0 /opt/sourcery-arm-201203/bin/../lib/gcc/arm-none-linux-gnueabi/4.6.3/libgcc.a(_arm_fixunsdfsi.o)
 .data          0x000a178c        0x0 /opt/sourcery-arm-201203/bin/../lib/gcc/arm-none-linux-gnueabi/4.6.3/libgcc.a(_arm_truncdfsf2.o)
 .data          0x000a178c        0x0 /opt/sourcery-arm-201203/bin/../lib/gcc/arm-none-linux-gnueabi/4.6.3/libgcc.a(_arm_cmpsf2.o)
 .data          0x000a178c        0x0 /opt/sourcery-arm-201203/bin/../lib/gcc/arm-none-linux-gnueabi/4.6.3/libgcc.a(_aeabi_ldivmod.o)
 .data          0x000a178c        0x0 /opt/sourcery-arm-201203/bin/../lib/gcc/arm-none-linux-gnueabi/4.6.3/libgcc.a(_aeabi_uldivmod.o)
 .data          0x000a178c        0x0 /opt/sourcery-arm-201203/bin/../lib/gcc/arm-none-linux-gnueabi/4.6.3/libgcc.a(_dvmd_lnx.o)
 .data          0x000a178c        0x0 /opt/sourcery-arm-201203/bin/../lib/gcc/arm-none-linux-gnueabi/4.6.3/libgcc.a(_fixdfdi.o)
 .data          0x000a178c        0x0 /opt/sourcery-arm-201203/bin/../lib/gcc/arm-none-linux-gnueabi/4.6.3/libgcc.a(_fixunsdfdi.o)
 .data          0x000a178c        0x0 /opt/sourcery-arm-201203/bin/../lib/gcc/arm-none-linux-gnueabi/4.6.3/libgcc.a(bpabi.o)
 .data          0x000a178c        0x0 /opt/sourcery-arm-201203/bin/../lib/gcc/arm-none-linux-gnueabi/4.6.3/libgcc.a(_divdi3.o)
 .data          0x000a178c        0x0 /opt/sourcery-arm-201203/bin/../lib/gcc/arm-none-linux-gnueabi/4.6.3/libgcc.a(_udivdi3.o)
 .data          0x000a178c        0x0 /opt/sourcery-arm-201203/bin/../arm-none-linux-gnueabi/libc/usr/lib/libc_nonshared.a(elf-init.oS)
 .data          0x000a178c        0x0 /opt/sourcery-arm-201203/bin/../lib/gcc/arm-none-linux-gnueabi/4.6.3/crtend.o
 .data          0x000a178c        0x0 /opt/sourcery-arm-201203/bin/../arm-none-linux-gnueabi/libc/usr/lib/crtn.o

.data1
 *(.data1)
                0x000a178c                _edata = .
                0x000a178c                PROVIDE (edata, .)
                0x000a178c                __bss_start = .
                0x000a178c                __bss_start__ = .

.bss            0x000a1790    0x132e0
 *(.dynbss)
 .dynbss        0x000a1790        0xc /opt/sourcery-arm-201203/bin/../arm-none-linux-gnueabi/libc/usr/lib/crt1.o
                0x000a1790                stdin@@GLIBC_2.4
                0x000a1798                stderr@@GLIBC_2.4
 *(.bss .bss.* .gnu.linkonce.b.*)
 .bss           0x000a179c        0x0 /opt/sourcery-arm-201203/bin/../arm-none-linux-gnueabi/libc/usr/lib/crt1.o
 .bss           0x000a179c        0x0 /opt/sourcery-arm-201203/bin/../arm-none-linux-gnueabi/libc/usr/lib/crti.o
 .bss           0x000a179c        0x1 /opt/sourcery-arm-201203/bin/../lib/gcc/arm-none-linux-gnueabi/4.6.3/crtbegin.o
 *fill*         0x000a179d        0x3 00
 .bss           0x000a17a0       0x3c ./natsemi_util/epl_1588_gps.o
 .bss           0x000a17dc        0x8 ./timestamper_if/sc_timestamp_gps.o
                0x000a17dc                gTmxTsCount
                0x000a17e0                gRcvTsCount
 *fill*         0x000a17e4        0x4 00
 .bss           0x000a17e8      0x228 ./clock_if/sc_clock_if_gps.o
 .bss           0x000a1a10       0xb8 ../common/network_if/sc_network_if_gps.o
                0x000a1ab8                gSndEvtCount
                0x000a1abc                gSndGnlCount
                0x000a1ac0                gRcvEvtCount
                0x000a1ac4                gRcvGnlCount
 .bss           0x000a1ac8        0x4 ../common/log/sc_log_gps.o
                0x000a1ac8                gLocalLog
 *fill*         0x000a1acc        0x4 00
 .bss           0x000a1ad0       0xa0 ../common/user_if/sc_ui_gps.o
                0x000a1b6c                gd_timeCodeCounter
 .bss           0x000a1b70        0x2 ../common/config_if/sc_readconfig_gps.o
 .bss           0x000a1b72        0x1 ../common/chan_processing_if/sc_SSM_handling_gps.o
 *fill*         0x000a1b73        0x5 00
 .bss           0x000a1b78       0x58 ../common/main_gps.o
                0x000a1b80                gps_valid
                0x000a1b84                bd_valid
                0x000a1b88                irigb1_valid
                0x000a1b8c                irigb2_valid
 .bss           0x000a1bd0        0x0 ../common/se_if/sc_se_if.o
 .bss           0x000a1bd0        0x0 ../common/gps_if/sc_gps_if.o
 .bss           0x000a1bd0      0x1ec ../common/lib/libsymm_mpc8313_PtpGpsSe.a(sc_chan_gps.o)
 .bss           0x000a1dbc        0x0 ../common/lib/libsymm_mpc8313_PtpGpsSe.a(sc_alarms_gps.o)
 *fill*         0x000a1dbc        0x4 00
 .bss           0x000a1dc0     0x1588 ../common/lib/libsymm_mpc8313_PtpGpsSe.a(CLK_gps.o)
                0x000a1dc0                Num_of_missed_pkts
                0x000a1dc4                number_of_sync_packets
                0x000a1dc8                number_of_delay_packets
                0x000a1dcc                number_of_sync_packets_for_timeout
                0x000a1dd0                number_of_delay_packets_for_timeout
                0x000a1dd2                number_of_sync_RTD_filtered
                0x000a1dd4                number_of_delay_RTD_filtered
 .bss           0x000a3348        0x0 ../common/lib/libsymm_mpc8313_PtpGpsSe.a(clk_ana_gps.o)
 .bss           0x000a3348        0x0 ../common/lib/libsymm_mpc8313_PtpGpsSe.a(clk_acq_gps.o)
 .bss           0x000a3348      0x170 ../common/lib/libsymm_mpc8313_PtpGpsSe.a(clk_input_gps.o)
                0x000a3348                set_update_phy_flag
 .bss           0x000a34b8      0x260 ../common/lib/libsymm_mpc8313_PtpGpsSe.a(clk_main_gps.o)
                0x000a34b8                jam_now_flag
                0x000a34b9                never_jam_flag
                0x000a34bc                mode_jitter
                0x000a34c0                dsl_flag
                0x000a34c4                enterprise_flag
                0x000a34c8                FLL_Elapse_Sec_Count
                0x000a34cc                FLL_Elapse_Sec_PTP_Count
                0x000a34d0                FLL_Elapse_Sec_Count_Use
                0x000a34d8                detilt_cluster
                0x000a34e0                fdrift_f
                0x000a34e8                fdrift_r
                0x000a34f0                pll_int_f
                0x000a34f8                pll_int_r
                0x000a3500                LoadState
                0x000a3504                hcount
                0x000a3508                Phy_Channel_Transient_Free_Cnt
                0x000a3524                low_warning_phy
                0x000a3540                high_warning_phy
                0x000a355c                rfe_turbo_flag_phy
                0x000a355e                rfe_turbo_flag_forward_phy
                0x000a3560                rfe_turbo_flag_reverse_phy
                0x000a3568                rfe_turbo_acc_phy
                0x000a3570                PHY_Floor_Change_Flag
                0x000a3578                skip_rfe_phy
                0x000a357c                cluster_inc_count_phy
                0x000a3598                cluster_inc_slew_count_phy
                0x000a35b4                cluster_inc_sense_phy
                0x000a35d0                cluster_inc_sense_prev_phy
                0x000a35f0                detilt_rate_phy
                0x000a3628                detilt_correction_phy
                0x000a3660                detilt_correction_for
                0x000a3668                detilt_correction_rev
                0x000a3670                fdrift_smooth
                0x000a3678                fdrift
                0x000a3680                fdrift_raw
                0x000a3688                fdrift_warped
                0x000a3690                hold_res_acc
                0x000a3698                hold_res_acc_avg
                0x000a36a0                var_cal_flag
                0x000a36a1                timestamp_transition_flag_servo
                0x000a36a4                timestamp_align_offset_servo
                0x000a36a8                timestamp_align_offset_prev_servo
                0x000a36ac                timestamp_skip_cnt_servo
                0x000a36b0                Initial_Offset
                0x000a36b4                Initial_Offset_Reverse
                0x000a36b8                cluster_inc_count_f
                0x000a36bc                cluster_inc_count_r
                0x000a36c0                cluster_inc_slew_count_f
                0x000a36c4                cluster_inc_slew_count_r
                0x000a36c8                cluster_inc_sense_f
                0x000a36cc                cluster_inc_sense_r
                0x000a36d0                cluster_inc_sense_prev_f
                0x000a36d4                cluster_inc_sense_prev_r
                0x000a36d8                rfe_turbo_flag_forward
                0x000a36da                rfe_turbo_flag_reverse
                0x000a36e0                rfe_turbo_acc
                0x000a36e8                Forward_Floor_Change_Flag
                0x000a36e9                Reverse_Floor_Change_Flag
                0x000a36ea                f_floor_event
                0x000a36eb                r_floor_event
                0x000a36ec                skip_rfe
                0x000a36f0                short_skip_cnt_f
                0x000a36f4                short_skip_cnt_r
                0x000a36f8                low_warning_for
                0x000a36fc                low_warning_rev
                0x000a3700                high_warning_for
                0x000a3704                high_warning_rev
                0x000a3708                complete_phase_flag
                0x000a370c                tstate
                0x000a3710                prev_tstate
                0x000a3714                o_fll_init
 .bss           0x000a3718     0x14b0 ../common/lib/libsymm_mpc8313_PtpGpsSe.a(sc_ptp_servo_gps.o)
                0x000a3718                lost_count
                0x000a371c                f_mismatch_count
                0x000a3720                b_mismatch_count
                0x000a3724                f_offset_element
                0x000a3728                b_offset_element
 .bss           0x000a4bc8        0xc ../common/lib/libsymm_mpc8313_PtpGpsSe.a(sc_system_gps.o)
 .bss           0x000a4bd4        0x0 ../common/lib/libsymm_mpc8313_PtpGpsSe.a(DBG_gps.o)
 .bss           0x000a4bd4      0x5c8 ../common/lib/libsymm_mpc8313_PtpGpsSe.a(sc_mnt_gps.o)
 .bss           0x000a519c       0x64 ../common/lib/libsymm_mpc8313_PtpGpsSe.a(THD_gps.o)
 .bss           0x000a5200        0x0 ../common/lib/libsymm_mpc8313_PtpGpsSe.a(sc_gps.o)
 .bss           0x000a5200       0x18 ../common/lib/libsymm_mpc8313_PtpGpsSe.a(GPS.o)
 .bss           0x000a5218        0x0 ../common/lib/libsymm_mpc8313_PtpGpsSe.a(SE.o)
 .bss           0x000a5218       0x74 ../common/lib/libsymm_mpc8313_PtpGpsSe.a(PTP_gps.o)
                0x000a5218                PTP_b_engSts
                0x000a521c                ps_roClkDs
 *fill*         0x000a528c        0x4 00
 .bss           0x000a5290       0xe0 ../common/lib/libsymm_mpc8313_PtpGpsSe.a(CTLmain_gps.o)
 .bss           0x000a5370       0x18 ../common/lib/libsymm_mpc8313_PtpGpsSe.a(CTLflt_gps.o)
 .bss           0x000a5388        0x8 ../common/lib/libsymm_mpc8313_PtpGpsSe.a(CTLds_gps.o)
 .bss           0x000a5390        0x8 ../common/lib/libsymm_mpc8313_PtpGpsSe.a(CLKflt_gps.o)
 .bss           0x000a5398      0x110 ../common/lib/libsymm_mpc8313_PtpGpsSe.a(SLVdel_gps.o)
 .bss           0x000a54a8     0x2010 ../common/lib/libsymm_mpc8313_PtpGpsSe.a(SLVdel_queue_gps.o)
 .bss           0x000a74b8       0xc8 ../common/lib/libsymm_mpc8313_PtpGpsSe.a(SLVsyn_gps.o)
 .bss           0x000a7580        0x0 ../common/lib/libsymm_mpc8313_PtpGpsSe.a(SLVmain_gps.o)
 .bss           0x000a7580       0x5c ../common/lib/libsymm_mpc8313_PtpGpsSe.a(MNTmain_gps.o)
                0x000a7580                o_initialize
 .bss           0x000a75dc        0x0 ../common/lib/libsymm_mpc8313_PtpGpsSe.a(MNTapi_gps.o)
 *fill*         0x000a75dc        0x4 00
 .bss           0x000a75e0      0x1c8 ../common/lib/libsymm_mpc8313_PtpGpsSe.a(MNTmsg_gps.o)
 .bss           0x000a77a8        0x8 ../common/lib/libsymm_mpc8313_PtpGpsSe.a(NIFmain_gps.o)
                0x000a77a8                as_padding
 .bss           0x000a77b0        0x0 ../common/lib/libsymm_mpc8313_PtpGpsSe.a(NIFtx_gps.o)
 .bss           0x000a77b0        0x0 ../common/lib/libsymm_mpc8313_PtpGpsSe.a(UCMmain_gps.o)
 .bss           0x000a77b0      0x67c ../common/lib/libsymm_mpc8313_PtpGpsSe.a(DISmain_gps.o)
                0x000a77b0                DIS_ps_ClkDs
 .bss           0x000a7e2c       0x74 ../common/lib/libsymm_mpc8313_PtpGpsSe.a(DISnet_gps.o)
 .bss           0x000a7ea0        0x0 ../common/lib/libsymm_mpc8313_PtpGpsSe.a(DISrx_gps.o)
 .bss           0x000a7ea0        0x0 ../common/lib/libsymm_mpc8313_PtpGpsSe.a(DIStx_gps.o)
 .bss           0x000a7ea0        0x0 ../common/lib/libsymm_mpc8313_PtpGpsSe.a(MSTmain_gps.o)
 .bss           0x000a7ea0       0x60 ../common/lib/libsymm_mpc8313_PtpGpsSe.a(MSTsyn_gps.o)
 .bss           0x000a7f00       0x5c ../common/lib/libsymm_mpc8313_PtpGpsSe.a(MSTannc_gps.o)
 .bss           0x000a7f5c        0x8 ../common/lib/libsymm_mpc8313_PtpGpsSe.a(CIFmain_gps.o)
 .bss           0x000a7f64        0x4 ../common/lib/libsymm_mpc8313_PtpGpsSe.a(TSUmain_gps.o)
                0x000a7f64                TSU_pf_errClbk
 .bss           0x000a7f68      0x228 ../common/lib/libsymm_mpc8313_PtpGpsSe.a(FIO_gps.o)
 .bss           0x000a8190        0x0 ../common/lib/libsymm_mpc8313_PtpGpsSe.a(FIOerr_gps.o)
 .bss           0x000a8190       0x18 ../common/lib/libsymm_mpc8313_PtpGpsSe.a(FLTno_gps.o)
 .bss           0x000a81a8       0x84 ../common/lib/libsymm_mpc8313_PtpGpsSe.a(tod_gps.o)
 .bss           0x000a822c        0x0 ../common/lib/libsymm_mpc8313_PtpGpsSe.a(TGT_gps.o)
 .bss           0x000a822c     0x2514 ../common/lib/libsymm_mpc8313_PtpGpsSe.a(SISmpool_gps.o)
 .bss           0x000aa740       0x68 ../common/lib/libsymm_mpc8313_PtpGpsSe.a(SISmain_gps.o)
                0x000aa740                SIS_w_RunningTask
 .bss           0x000aa7a8       0x4c ../common/lib/libsymm_mpc8313_PtpGpsSe.a(SISevent_gps.o)
 .bss           0x000aa7f4      0xef8 ../common/lib/libsymm_mpc8313_PtpGpsSe.a(SISmbox_gps.o)
 .bss           0x000ab6ec       0x70 ../common/lib/libsymm_mpc8313_PtpGpsSe.a(GOE_gps.o)
                0x000ab6ec                GOE_pf_errClbk
 *fill*         0x000ab75c        0x4 00
 .bss           0x000ab760      0x200 ../common/lib/libsymm_mpc8313_PtpGpsSe.a(GN_GPS_Task.o)
 .bss           0x000ab960       0xb0 ../common/lib/libsymm_mpc8313_PtpGpsSe.a(UCDmain_gps.o)
 .bss           0x000aba10       0xc0 ../common/lib/libsymm_mpc8313_PtpGpsSe.a(PTPmath_gps.o)
 .bss           0x000abad0        0xc ../common/lib/libsymm_mpc8313_PtpGpsSe.a(CTLbmc_gps.o)
 .bss           0x000abadc        0x0 ../common/lib/libsymm_mpc8313_PtpGpsSe.a(MNTget_gps.o)
 .bss           0x000abadc        0x0 ../common/lib/libsymm_mpc8313_PtpGpsSe.a(NIFrx_gps.o)
 .bss           0x000abadc       0x80 ../common/lib/libsymm_mpc8313_PtpGpsSe.a(UCMannc_gps.o)
 .bss           0x000abb5c       0x80 ../common/lib/libsymm_mpc8313_PtpGpsSe.a(UCMsyn_gps.o)
 .bss           0x000abbdc       0x4c ../common/lib/libsymm_mpc8313_PtpGpsSe.a(UCMdel_gps.o)
 .bss           0x000abc28       0x54 ../common/lib/libsymm_mpc8313_PtpGpsSe.a(MSTdel_gps.o)
 .bss           0x000abc7c      0x10c ../common/lib/libsymm_mpc8313_PtpGpsSe.a(sc_ptp_mgmt_gps.o)
 .bss           0x000abd88        0x0 ../common/lib/libsymm_mpc8313_PtpGpsSe.a(sc_util_gps.o)
 .bss           0x000abd88        0x0 /opt/sourcery-arm-201203/bin/../lib/gcc/arm-none-linux-gnueabi/4.6.3/libgcc.a(_udivsi3.o)
 .bss           0x000abd88        0x0 /opt/sourcery-arm-201203/bin/../lib/gcc/arm-none-linux-gnueabi/4.6.3/libgcc.a(_divsi3.o)
 .bss           0x000abd88        0x0 /opt/sourcery-arm-201203/bin/../lib/gcc/arm-none-linux-gnueabi/4.6.3/libgcc.a(_arm_addsubdf3.o)
 .bss           0x000abd88        0x0 /opt/sourcery-arm-201203/bin/../lib/gcc/arm-none-linux-gnueabi/4.6.3/libgcc.a(_arm_muldivdf3.o)
 .bss           0x000abd88        0x0 /opt/sourcery-arm-201203/bin/../lib/gcc/arm-none-linux-gnueabi/4.6.3/libgcc.a(_arm_cmpdf2.o)
 .bss           0x000abd88        0x0 /opt/sourcery-arm-201203/bin/../lib/gcc/arm-none-linux-gnueabi/4.6.3/libgcc.a(_arm_fixdfsi.o)
 .bss           0x000abd88        0x0 /opt/sourcery-arm-201203/bin/../lib/gcc/arm-none-linux-gnueabi/4.6.3/libgcc.a(_arm_fixunsdfsi.o)
 .bss           0x000abd88        0x0 /opt/sourcery-arm-201203/bin/../lib/gcc/arm-none-linux-gnueabi/4.6.3/libgcc.a(_arm_truncdfsf2.o)
 .bss           0x000abd88        0x0 /opt/sourcery-arm-201203/bin/../lib/gcc/arm-none-linux-gnueabi/4.6.3/libgcc.a(_arm_cmpsf2.o)
 .bss           0x000abd88        0x0 /opt/sourcery-arm-201203/bin/../lib/gcc/arm-none-linux-gnueabi/4.6.3/libgcc.a(_aeabi_ldivmod.o)
 .bss           0x000abd88        0x0 /opt/sourcery-arm-201203/bin/../lib/gcc/arm-none-linux-gnueabi/4.6.3/libgcc.a(_aeabi_uldivmod.o)
 .bss           0x000abd88        0x0 /opt/sourcery-arm-201203/bin/../lib/gcc/arm-none-linux-gnueabi/4.6.3/libgcc.a(_dvmd_lnx.o)
 .bss           0x000abd88        0x0 /opt/sourcery-arm-201203/bin/../lib/gcc/arm-none-linux-gnueabi/4.6.3/libgcc.a(_fixdfdi.o)
 .bss           0x000abd88        0x0 /opt/sourcery-arm-201203/bin/../lib/gcc/arm-none-linux-gnueabi/4.6.3/libgcc.a(_fixunsdfdi.o)
 .bss           0x000abd88        0x0 /opt/sourcery-arm-201203/bin/../lib/gcc/arm-none-linux-gnueabi/4.6.3/libgcc.a(bpabi.o)
 .bss           0x000abd88        0x0 /opt/sourcery-arm-201203/bin/../lib/gcc/arm-none-linux-gnueabi/4.6.3/libgcc.a(_divdi3.o)
 .bss           0x000abd88        0x0 /opt/sourcery-arm-201203/bin/../lib/gcc/arm-none-linux-gnueabi/4.6.3/libgcc.a(_udivdi3.o)
 .bss           0x000abd88        0x0 /opt/sourcery-arm-201203/bin/../arm-none-linux-gnueabi/libc/usr/lib/libc_nonshared.a(elf-init.oS)
 .bss           0x000abd88        0x0 /opt/sourcery-arm-201203/bin/../lib/gcc/arm-none-linux-gnueabi/4.6.3/crtend.o
 .bss           0x000abd88        0x0 /opt/sourcery-arm-201203/bin/../arm-none-linux-gnueabi/libc/usr/lib/crtn.o
 *(COMMON)
 COMMON         0x000abd88       0x24 ./timestamper_if/sc_timestamp_gps.o
                0x000abd88                as_netHandle
 COMMON         0x000abdac       0x14 ../common/user_if/sc_ui_gps.o
                0x000abdac                gs_timeCode
 COMMON         0x000abdc0       0x54 ../common/chan_processing_if/sc_SSM_handling_gps.o
                0x000abdc0                gChanAttributesTable
 COMMON         0x000abe14        0x8 ../common/main_gps.o
                0x000abe14                s_localDebCfg
 *fill*         0x000abe1c        0x4 00
 COMMON         0x000abe20     0x1630 ../common/lib/libsymm_mpc8313_PtpGpsSe.a(CLK_gps.o)
                0x000abe20                GPS_C_Fifo_Local
                0x000ac048                Sync_Out_Indx
                0x000ac04a                Delay_Out_Indx
                0x000ac050                hprev_f
                0x000ac058                PTP_Seq_Num_curr
                0x000ac05c                SYNCE_B_Fifo_Local
                0x000ac284                GPS_D_Fifo_Local
                0x000ac4b0                nfreq_reverse
                0x000ac4b8                GPS_A_Fifo_Local
                0x000ac6e0                GPS_B_Fifo_Local
                0x000ac908                signaling_announce_ack_flag
                0x000ac910                holdover_buffer_f
                0x000aca50                holdover_buffer_r
                0x000acb90                PTP_Delay_Fifo_Local
                0x000acdb8                RED_Fifo_Local
                0x000acfe0                signaling_delay_ack_flag
                0x000acfe4                signaling_sync_ack_flag
                0x000acfe8                nfreq_forward
                0x000acff0                Current_Delay_Req_Seq_Num
                0x000acff4                SYNCE_A_Fifo_Local
                0x000ad21c                PTP_Fifo_Local
                0x000ad444                PTP_Seq_Num_prev
                0x000ad448                hprev_r
 COMMON         0x000ad450      0x880 ../common/lib/libsymm_mpc8313_PtpGpsSe.a(clk_ana_gps.o)
                0x000ad450                wpairs_phy
                0x000ad850                fpairs
                0x000ad890                wpairs
                0x000ad8d0                fpairs_phy
 COMMON         0x000adcd0       0x1c ../common/lib/libsymm_mpc8313_PtpGpsSe.a(clk_acq_gps.o)
                0x000adcd0                stilt
                0x000adcd4                min_detilt
                0x000adcdc                stemp
                0x000adce0                sdrift_prev
                0x000adce4                sbuf
 *fill*         0x000adcec        0x4 00
 COMMON         0x000adcf0     0x5c90 ../common/lib/libsymm_mpc8313_PtpGpsSe.a(clk_main_gps.o)
                0x000adcf0                RFE_PHY
                0x000af5a0                avg_GPS_D
                0x000af5a8                fbias_large
                0x000af5b0                ofw_start_thres_r
                0x000af5b8                rbias
                0x000af5c0                rfe_ppindx
                0x000af5c8                gps_pc
                0x000af5f0                rfe_turbo_phase_large_band
                0x000af600                ofw_start_thres_f
                0x000af604                rmf_r
                0x000af608                rmi_f
                0x000af60c                rmi_r
                0x000af610                Phase_Control_Enable
                0x000af614                rmf_f
                0x000af618                RFE_in_forward
                0x000af640                rmw_f
                0x000b0644                ofw_cluster_iter_r
                0x000b0648                rmw_r
                0x000b164c                ofw_cluster_total_sum_f
                0x000b1650                time_bias_est_rate
                0x000b1658                next_ofw_cluster_total_r
                0x000b165c                ptpTransport
                0x000b1660                delta_reverse_slew
                0x000b1664                next_ofw_cluster_total_f
                0x000b1668                RFE_in_reverse
                0x000b1690                avg_RED
                0x000b1694                ofw_cluster_total_sum_r
                0x000b1698                rfe_pindx
                0x000b16a0                fllstatus
                0x000b17c8                se_pb
                0x000b17f0                rfe_turbo_phase_avg_large_band
                0x000b1800                ofw_cluster_total_sum_prev_r
                0x000b1808                forward_stats
                0x000b1830                rfe_turbo_phase_phy
                0x000b1868                floor_density_small_f
                0x000b1870                red_pa
                0x000b1898                ofw_cluster_total_f
                0x000b189c                rfe_findx
                0x000b18a0                ofw_cluster_total_r
                0x000b18a4                avg_GPS_C
                0x000b18a8                rfe_turbo_phase_large
                0x000b18b8                reverse_weight
                0x000b18c0                RFE
                0x000b2130                floor_density_small_r
                0x000b2138                time_bias_mean
                0x000b2140                gaptime
                0x000b2148                gps_pb
                0x000b2170                mflag_r
                0x000b2174                mflag_f
                0x000b2178                ztie_stats
                0x000b2560                holdover_r
                0x000b2568                rfe_turbo_phase_acc_small
                0x000b2578                rfe_settle_count
                0x000b2580                rbias_small
                0x000b2588                om_f
                0x000b258c                ofw_cluster_total_sum_prev_f
                0x000b2590                holdover_f
                0x000b2598                ofw_cluster_total_prev_f
                0x000b259c                timestamp_head_r_servo
                0x000b25a0                ofw_cluster_total_prev_r
                0x000b25a4                PTP_LOS
                0x000b25a8                fbias_small
                0x000b25b0                rfe_turbo_phase_small
                0x000b25c0                rms
                0x000b2600                ofw_uslew_r
                0x000b2608                residual_time_error
                0x000b2610                avg_GPS_B
                0x000b2614                om_r
                0x000b2618                time_transient_flag
                0x000b261a                hcount_recovery_rfe_start
                0x000b2620                reverse_stats
                0x000b2648                time_bias_est
                0x000b2650                ofw_uslew_f
                0x000b2658                rfe_turbo_phase_acc_large
                0x000b2668                delta_reverse_slew_cnt
                0x000b2670                gps_pa
                0x000b2698                min_reverse
                0x000b26a0                forward_weight
                0x000b26a8                min_forward
                0x000b26b0                hcount_rfe
                0x000b26b4                last_good_freq
                0x000b26b8                IPD_PHY
                0x000b31b0                IPD
                0x000b36e0                floor_density_large_f
                0x000b36e8                fbias
                0x000b36f0                rm_r
                0x000b36f8                next_ofw_cluster_total_sum_r
                0x000b3700                rm_f
                0x000b3708                rfe_pppindx
                0x000b370a                hcount_recovery_rfe
                0x000b3710                floor_density_large_r
                0x000b3718                delta_forward_slew_cnt
                0x000b3720                rfe_turbo_phase
                0x000b3730                next_ofw_cluster_total_sum_prev_r
                0x000b3734                avg_GPS_A
                0x000b3738                next_ofw_cluster_total_sum_f
                0x000b3740                xds
                0x000b3830                next_ofw_cluster_total_sum_prev_f
                0x000b3838                floor_density_band_f
                0x000b3840                gps_pd
                0x000b3868                round_trip_delay_alt
                0x000b3870                ofw_cluster_iter_f
                0x000b3878                floor_density_band_r
                0x000b3880                rfe_turbo_phase_acc
                0x000b3890                rbias_large
                0x000b3898                next_ofw_cluster_total_prev_r
                0x000b38a0                rfe_turbo_phase_avg_large
                0x000b38b0                rfe_turbo_phase_acc_phy
                0x000b38e8                se_pa
                0x000b3910                next_ofw_cluster_total_prev_f
                0x000b3918                rfe_turbo_phase_avg_small
                0x000b3928                rfe_cindx
                0x000b392a                timestamp_head_f_servo
                0x000b3930                rfe_turbo_phase_acc_large_band
                0x000b3940                timestamp_align_skip_servo
                0x000b3942                ptpRate
                0x000b3948                rfe_turbo_phase_avg
                0x000b3958                delta_forward_slew
                0x000b3960                floor_density_r
                0x000b3968                rmc_r
                0x000b396c                rmc_f
                0x000b3970                floor_density_f
                0x000b3978                time_bias_var
 COMMON         0x000b3980       0x30 ../common/lib/libsymm_mpc8313_PtpGpsSe.a(sc_ptp_servo_gps.o)
                0x000b3980                delay_min_sample
                0x000b3998                sync_min_sample
 COMMON         0x000b39b0        0x8 ../common/lib/libsymm_mpc8313_PtpGpsSe.a(PTP_gps.o)
                0x000b39b0                PTP_pf_cbErr
                0x000b39b4                PTP_dw_errCount
 COMMON         0x000b39b8      0x2f4 ../common/lib/libsymm_mpc8313_PtpGpsSe.a(CTLmain_gps.o)
                0x000b39b8                CTL_aw_Hdl_mas
                0x000b39c0                CTL_s_ClkDS
                0x000b3c70                CTL_aw_Hdl_mad
                0x000b3c74                CTL_w_anncTmoExt
                0x000b3c80                CTL_aw_Hdl_maa
                0x000b3c84                CTL_s_comIf
                0x000b3c94                s_ucMstTbl
                0x000b3ca8                CTL_ps_extTmPropDs
 COMMON         0x000b3cac        0xa ../common/lib/libsymm_mpc8313_PtpGpsSe.a(SLVmain_gps.o)
                0x000b3cac                SLV_as_portId
 *fill*         0x000b3cb6        0x2 00
 COMMON         0x000b3cb8       0x1c ../common/lib/libsymm_mpc8313_PtpGpsSe.a(MNTmain_gps.o)
                0x000b3cb8                w_numTblEntries
                0x000b3cbc                MNT_as_pId
                0x000b3cc8                MNT_dw_amntNetIf
                0x000b3ccc                MNT_ps_ClkDs
                0x000b3cd0                MNT_ps_ucMstTbl
 COMMON         0x000b3cd4        0x8 ../common/lib/libsymm_mpc8313_PtpGpsSe.a(NIFmain_gps.o)
                0x000b3cd4                NIF_dw_secTicks
                0x000b3cd8                NIF_ps_ClkDs
 COMMON         0x000b3cdc      0x780 ../common/lib/libsymm_mpc8313_PtpGpsSe.a(NIFtx_gps.o)
                0x000b3cdc                NIF_aab_FlwupMsg
                0x000b3d08                NIF_aab_SyncMsg
                0x000b3d84                NIF_aab_DlrspMsg
                0x000b3dbc                NIF_aab_MntMsg
                0x000b43a0                NIF_aab_AnncMsg
                0x000b43e0                NIF_aab_DlrqMsg
 COMMON         0x000b445c        0xa ../common/lib/libsymm_mpc8313_PtpGpsSe.a(UCMmain_gps.o)
                0x000b445c                UCM_as_pId
 *fill*         0x000b4466        0x2 00
 COMMON         0x000b4468       0x26 ../common/lib/libsymm_mpc8313_PtpGpsSe.a(DISmain_gps.o)
                0x000b4468                DIS_dw_poll_tmo
                0x000b4470                DIS_as_inbLat
                0x000b4478                DIS_aw_MboxHdl_mas
                0x000b447c                DIS_dw_MaxPollTmo
                0x000b4480                DIS_aw_MboxHdl_maa
                0x000b4484                DIS_s_NetSts
                0x000b448c                DIS_aw_MboxHdl_mad
 *fill*         0x000b448e        0x2 00
 COMMON         0x000b4490        0x8 ../common/lib/libsymm_mpc8313_PtpGpsSe.a(DIStx_gps.o)
                0x000b4490                DIS_as_outbLat
 COMMON         0x000b4498        0xa ../common/lib/libsymm_mpc8313_PtpGpsSe.a(MSTmain_gps.o)
                0x000b4498                MST_as_pId
 *fill*         0x000b44a2        0x2 00
 COMMON         0x000b44a4       0x20 ../common/lib/libsymm_mpc8313_PtpGpsSe.a(TGT_gps.o)
                0x000b44a4                TGT_o_stmd
                0x000b44a5                TGT_o_owd
                0x000b44a8                TGT_s_mtx
                0x000b44c0                TGT_o_offs
                0x000b44c1                TGT_o_mtsd
                0x000b44c2                TGT_o_silent
                0x000b44c3                TGT_o_meanDrft
 COMMON         0x000b44c4       0x14 ../common/lib/libsymm_mpc8313_PtpGpsSe.a(SISmain_gps.o)
                0x000b44c4                SIS_ab_TaskSts
 COMMON         0x000b44d8        0xa ../common/lib/libsymm_mpc8313_PtpGpsSe.a(UCDmain_gps.o)
                0x000b44d8                UCD_as_portId
 *fill*         0x000b44e2        0x2 00
 COMMON         0x000b44e4      0x58a ../common/lib/libsymm_mpc8313_PtpGpsSe.a(MNTget_gps.o)
                0x000b44e4                ab_RespTlvPld
                0x000b4a70                . = ALIGN ((. != 0x0)?0x4:0x1)
 *fill*         0x000b4a6e        0x2 00
                0x000b4a70                _bss_end__ = .
                0x000b4a70                __bss_end__ = .
                0x000b4a70                . = ALIGN (0x4)
                0x000b4a70                . = ALIGN (0x4)
                0x000b4a70                __end__ = .
                0x000b4a70                _end = .
                0x000b4a70                PROVIDE (end, .)
                0x000b4a70                . = DATA_SEGMENT_END (.)

.stab
 *(.stab)

.stabstr
 *(.stabstr)

.stab.excl
 *(.stab.excl)

.stab.exclstr
 *(.stab.exclstr)

.stab.index
 *(.stab.index)

.stab.indexstr
 *(.stab.indexstr)

.comment        0x00000000       0x30
 *(.comment)
 .comment       0x00000000       0x30 ./natsemi_util/epl_1588_gps.o
                                 0x31 (size before relaxing)
 .comment       0x00000000       0x31 ./timestamper_if/sc_timestamp_gps.o
 .comment       0x00000000       0x31 ./clock_if/sc_clock_if_gps.o
 .comment       0x00000000       0x31 ../common/network_if/sc_network_if_gps.o
 .comment       0x00000000       0x31 ../common/log/sc_log_gps.o
 .comment       0x00000000       0x31 ../common/user_if/sc_ui_gps.o
 .comment       0x00000000       0x31 ../common/config_if/sc_readconfig_gps.o
 .comment       0x00000000       0x31 ../common/chan_processing_if/sc_SSM_handling_gps.o
 .comment       0x00000000       0x31 ../common/main_gps.o
 .comment       0x00000000       0x31 ../common/se_if/sc_se_if.o
 .comment       0x00000000       0x31 ../common/gps_if/sc_gps_if.o
 .comment       0x00000000       0x31 ../common/lib/libsymm_mpc8313_PtpGpsSe.a(sc_chan_gps.o)
 .comment       0x00000000       0x31 ../common/lib/libsymm_mpc8313_PtpGpsSe.a(sc_alarms_gps.o)
 .comment       0x00000000       0x31 ../common/lib/libsymm_mpc8313_PtpGpsSe.a(CLK_gps.o)
 .comment       0x00000000       0x31 ../common/lib/libsymm_mpc8313_PtpGpsSe.a(clk_ana_gps.o)
 .comment       0x00000000       0x31 ../common/lib/libsymm_mpc8313_PtpGpsSe.a(clk_acq_gps.o)
 .comment       0x00000000       0x31 ../common/lib/libsymm_mpc8313_PtpGpsSe.a(clk_input_gps.o)
 .comment       0x00000000       0x31 ../common/lib/libsymm_mpc8313_PtpGpsSe.a(clk_main_gps.o)
 .comment       0x00000000       0x31 ../common/lib/libsymm_mpc8313_PtpGpsSe.a(sc_ptp_servo_gps.o)
 .comment       0x00000000       0x31 ../common/lib/libsymm_mpc8313_PtpGpsSe.a(sc_system_gps.o)
 .comment       0x00000000       0x31 ../common/lib/libsymm_mpc8313_PtpGpsSe.a(DBG_gps.o)
 .comment       0x00000000       0x31 ../common/lib/libsymm_mpc8313_PtpGpsSe.a(sc_mnt_gps.o)
 .comment       0x00000000       0x31 ../common/lib/libsymm_mpc8313_PtpGpsSe.a(THD_gps.o)
 .comment       0x00000000       0x31 ../common/lib/libsymm_mpc8313_PtpGpsSe.a(sc_gps.o)
 .comment       0x00000000       0x31 ../common/lib/libsymm_mpc8313_PtpGpsSe.a(GPS.o)
 .comment       0x00000000       0x31 ../common/lib/libsymm_mpc8313_PtpGpsSe.a(SE.o)
 .comment       0x00000000       0x31 ../common/lib/libsymm_mpc8313_PtpGpsSe.a(PTP_gps.o)
 .comment       0x00000000       0x31 ../common/lib/libsymm_mpc8313_PtpGpsSe.a(CTLmain_gps.o)
 .comment       0x00000000       0x31 ../common/lib/libsymm_mpc8313_PtpGpsSe.a(CTLflt_gps.o)
 .comment       0x00000000       0x31 ../common/lib/libsymm_mpc8313_PtpGpsSe.a(CTLds_gps.o)
 .comment       0x00000000       0x31 ../common/lib/libsymm_mpc8313_PtpGpsSe.a(CLKflt_gps.o)
 .comment       0x00000000       0x31 ../common/lib/libsymm_mpc8313_PtpGpsSe.a(SLVdel_gps.o)
 .comment       0x00000000       0x31 ../common/lib/libsymm_mpc8313_PtpGpsSe.a(SLVdel_queue_gps.o)
 .comment       0x00000000       0x31 ../common/lib/libsymm_mpc8313_PtpGpsSe.a(SLVsyn_gps.o)
 .comment       0x00000000       0x31 ../common/lib/libsymm_mpc8313_PtpGpsSe.a(SLVmain_gps.o)
 .comment       0x00000000       0x31 ../common/lib/libsymm_mpc8313_PtpGpsSe.a(MNTmain_gps.o)
 .comment       0x00000000       0x31 ../common/lib/libsymm_mpc8313_PtpGpsSe.a(MNTapi_gps.o)
 .comment       0x00000000       0x31 ../common/lib/libsymm_mpc8313_PtpGpsSe.a(MNTmsg_gps.o)
 .comment       0x00000000       0x31 ../common/lib/libsymm_mpc8313_PtpGpsSe.a(NIFmain_gps.o)
 .comment       0x00000000       0x31 ../common/lib/libsymm_mpc8313_PtpGpsSe.a(NIFtx_gps.o)
 .comment       0x00000000       0x31 ../common/lib/libsymm_mpc8313_PtpGpsSe.a(UCMmain_gps.o)
 .comment       0x00000000       0x31 ../common/lib/libsymm_mpc8313_PtpGpsSe.a(DISmain_gps.o)
 .comment       0x00000000       0x31 ../common/lib/libsymm_mpc8313_PtpGpsSe.a(DISnet_gps.o)
 .comment       0x00000000       0x31 ../common/lib/libsymm_mpc8313_PtpGpsSe.a(DISrx_gps.o)
 .comment       0x00000000       0x31 ../common/lib/libsymm_mpc8313_PtpGpsSe.a(DIStx_gps.o)
 .comment       0x00000000       0x31 ../common/lib/libsymm_mpc8313_PtpGpsSe.a(MSTmain_gps.o)
 .comment       0x00000000       0x31 ../common/lib/libsymm_mpc8313_PtpGpsSe.a(MSTsyn_gps.o)
 .comment       0x00000000       0x31 ../common/lib/libsymm_mpc8313_PtpGpsSe.a(MSTannc_gps.o)
 .comment       0x00000000       0x31 ../common/lib/libsymm_mpc8313_PtpGpsSe.a(CIFmain_gps.o)
 .comment       0x00000000       0x31 ../common/lib/libsymm_mpc8313_PtpGpsSe.a(TSUmain_gps.o)
 .comment       0x00000000       0x31 ../common/lib/libsymm_mpc8313_PtpGpsSe.a(FIO_gps.o)
 .comment       0x00000000       0x31 ../common/lib/libsymm_mpc8313_PtpGpsSe.a(FIOerr_gps.o)
 .comment       0x00000000       0x31 ../common/lib/libsymm_mpc8313_PtpGpsSe.a(FLTno_gps.o)
 .comment       0x00000000       0x31 ../common/lib/libsymm_mpc8313_PtpGpsSe.a(tod_gps.o)
 .comment       0x00000000       0x31 ../common/lib/libsymm_mpc8313_PtpGpsSe.a(TGT_gps.o)
 .comment       0x00000000       0x31 ../common/lib/libsymm_mpc8313_PtpGpsSe.a(SISmpool_gps.o)
 .comment       0x00000000       0x31 ../common/lib/libsymm_mpc8313_PtpGpsSe.a(SISmain_gps.o)
 .comment       0x00000000       0x31 ../common/lib/libsymm_mpc8313_PtpGpsSe.a(SISevent_gps.o)
 .comment       0x00000000       0x31 ../common/lib/libsymm_mpc8313_PtpGpsSe.a(SISmbox_gps.o)
 .comment       0x00000000       0x31 ../common/lib/libsymm_mpc8313_PtpGpsSe.a(GOE_gps.o)
 .comment       0x00000000       0x31 ../common/lib/libsymm_mpc8313_PtpGpsSe.a(GN_GPS_Task.o)
 .comment       0x00000000       0x31 ../common/lib/libsymm_mpc8313_PtpGpsSe.a(UCDmain_gps.o)
 .comment       0x00000000       0x31 ../common/lib/libsymm_mpc8313_PtpGpsSe.a(PTPmath_gps.o)
 .comment       0x00000000       0x31 ../common/lib/libsymm_mpc8313_PtpGpsSe.a(CTLbmc_gps.o)
 .comment       0x00000000       0x31 ../common/lib/libsymm_mpc8313_PtpGpsSe.a(MNTget_gps.o)
 .comment       0x00000000       0x31 ../common/lib/libsymm_mpc8313_PtpGpsSe.a(NIFrx_gps.o)
 .comment       0x00000000       0x31 ../common/lib/libsymm_mpc8313_PtpGpsSe.a(UCMannc_gps.o)
 .comment       0x00000000       0x31 ../common/lib/libsymm_mpc8313_PtpGpsSe.a(UCMsyn_gps.o)
 .comment       0x00000000       0x31 ../common/lib/libsymm_mpc8313_PtpGpsSe.a(UCMdel_gps.o)
 .comment       0x00000000       0x31 ../common/lib/libsymm_mpc8313_PtpGpsSe.a(MSTdel_gps.o)
 .comment       0x00000000       0x31 ../common/lib/libsymm_mpc8313_PtpGpsSe.a(sc_ptp_mgmt_gps.o)
 .comment       0x00000000       0x31 ../common/lib/libsymm_mpc8313_PtpGpsSe.a(sc_util_gps.o)

.ARM.attributes
                0x00000000       0x2b
 .ARM.attributes
                0x00000000       0x2b /opt/sourcery-arm-201203/bin/../arm-none-linux-gnueabi/libc/usr/lib/crt1.o
 .ARM.attributes
                0x0000002b       0x2d /opt/sourcery-arm-201203/bin/../arm-none-linux-gnueabi/libc/usr/lib/crti.o
 .ARM.attributes
                0x00000058       0x2d /opt/sourcery-arm-201203/bin/../lib/gcc/arm-none-linux-gnueabi/4.6.3/crtbegin.o
 .ARM.attributes
                0x00000085       0x2d ./natsemi_util/epl_1588_gps.o
 .ARM.attributes
                0x000000b2       0x2d ./timestamper_if/sc_timestamp_gps.o
 .ARM.attributes
                0x000000df       0x2d ./clock_if/sc_clock_if_gps.o
 .ARM.attributes
                0x0000010c       0x2d ../common/network_if/sc_network_if_gps.o
 .ARM.attributes
                0x00000139       0x2d ../common/log/sc_log_gps.o
 .ARM.attributes
                0x00000166       0x2d ../common/user_if/sc_ui_gps.o
 .ARM.attributes
                0x00000193       0x2d ../common/config_if/sc_readconfig_gps.o
 .ARM.attributes
                0x000001c0       0x2d ../common/chan_processing_if/sc_SSM_handling_gps.o
 .ARM.attributes
                0x000001ed       0x2d ../common/main_gps.o
 .ARM.attributes
                0x0000021a       0x2d ../common/se_if/sc_se_if.o
 .ARM.attributes
                0x00000247       0x2d ../common/gps_if/sc_gps_if.o
 .ARM.attributes
                0x00000274       0x2d ../common/lib/libsymm_mpc8313_PtpGpsSe.a(sc_chan_gps.o)
 .ARM.attributes
                0x000002a1       0x2d ../common/lib/libsymm_mpc8313_PtpGpsSe.a(sc_alarms_gps.o)
 .ARM.attributes
                0x000002ce       0x2d ../common/lib/libsymm_mpc8313_PtpGpsSe.a(CLK_gps.o)
 .ARM.attributes
                0x000002fb       0x2d ../common/lib/libsymm_mpc8313_PtpGpsSe.a(clk_ana_gps.o)
 .ARM.attributes
                0x00000328       0x2d ../common/lib/libsymm_mpc8313_PtpGpsSe.a(clk_acq_gps.o)
 .ARM.attributes
                0x00000355       0x2d ../common/lib/libsymm_mpc8313_PtpGpsSe.a(clk_input_gps.o)
 .ARM.attributes
                0x00000382       0x2d ../common/lib/libsymm_mpc8313_PtpGpsSe.a(clk_main_gps.o)
 .ARM.attributes
                0x000003af       0x2d ../common/lib/libsymm_mpc8313_PtpGpsSe.a(sc_ptp_servo_gps.o)
 .ARM.attributes
                0x000003dc       0x2d ../common/lib/libsymm_mpc8313_PtpGpsSe.a(sc_system_gps.o)
 .ARM.attributes
                0x00000409       0x2d ../common/lib/libsymm_mpc8313_PtpGpsSe.a(DBG_gps.o)
 .ARM.attributes
                0x00000436       0x2d ../common/lib/libsymm_mpc8313_PtpGpsSe.a(sc_mnt_gps.o)
 .ARM.attributes
                0x00000463       0x2d ../common/lib/libsymm_mpc8313_PtpGpsSe.a(THD_gps.o)
 .ARM.attributes
                0x00000490       0x2d ../common/lib/libsymm_mpc8313_PtpGpsSe.a(sc_gps.o)
 .ARM.attributes
                0x000004bd       0x2d ../common/lib/libsymm_mpc8313_PtpGpsSe.a(GPS.o)
 .ARM.attributes
                0x000004ea       0x2d ../common/lib/libsymm_mpc8313_PtpGpsSe.a(SE.o)
 .ARM.attributes
                0x00000517       0x2d ../common/lib/libsymm_mpc8313_PtpGpsSe.a(PTP_gps.o)
 .ARM.attributes
                0x00000544       0x2d ../common/lib/libsymm_mpc8313_PtpGpsSe.a(CTLmain_gps.o)
 .ARM.attributes
                0x00000571       0x2d ../common/lib/libsymm_mpc8313_PtpGpsSe.a(CTLflt_gps.o)
 .ARM.attributes
                0x0000059e       0x2d ../common/lib/libsymm_mpc8313_PtpGpsSe.a(CTLds_gps.o)
 .ARM.attributes
                0x000005cb       0x2d ../common/lib/libsymm_mpc8313_PtpGpsSe.a(CLKflt_gps.o)
 .ARM.attributes
                0x000005f8       0x2d ../common/lib/libsymm_mpc8313_PtpGpsSe.a(SLVdel_gps.o)
 .ARM.attributes
                0x00000625       0x2d ../common/lib/libsymm_mpc8313_PtpGpsSe.a(SLVdel_queue_gps.o)
 .ARM.attributes
                0x00000652       0x2d ../common/lib/libsymm_mpc8313_PtpGpsSe.a(SLVsyn_gps.o)
 .ARM.attributes
                0x0000067f       0x2d ../common/lib/libsymm_mpc8313_PtpGpsSe.a(SLVmain_gps.o)
 .ARM.attributes
                0x000006ac       0x2d ../common/lib/libsymm_mpc8313_PtpGpsSe.a(MNTmain_gps.o)
 .ARM.attributes
                0x000006d9       0x2d ../common/lib/libsymm_mpc8313_PtpGpsSe.a(MNTapi_gps.o)
 .ARM.attributes
                0x00000706       0x2d ../common/lib/libsymm_mpc8313_PtpGpsSe.a(MNTmsg_gps.o)
 .ARM.attributes
                0x00000733       0x2d ../common/lib/libsymm_mpc8313_PtpGpsSe.a(NIFmain_gps.o)
 .ARM.attributes
                0x00000760       0x2d ../common/lib/libsymm_mpc8313_PtpGpsSe.a(NIFtx_gps.o)
 .ARM.attributes
                0x0000078d       0x2d ../common/lib/libsymm_mpc8313_PtpGpsSe.a(UCMmain_gps.o)
 .ARM.attributes
                0x000007ba       0x2d ../common/lib/libsymm_mpc8313_PtpGpsSe.a(DISmain_gps.o)
 .ARM.attributes
                0x000007e7       0x2d ../common/lib/libsymm_mpc8313_PtpGpsSe.a(DISnet_gps.o)
 .ARM.attributes
                0x00000814       0x2d ../common/lib/libsymm_mpc8313_PtpGpsSe.a(DISrx_gps.o)
 .ARM.attributes
                0x00000841       0x2d ../common/lib/libsymm_mpc8313_PtpGpsSe.a(DIStx_gps.o)
 .ARM.attributes
                0x0000086e       0x2d ../common/lib/libsymm_mpc8313_PtpGpsSe.a(MSTmain_gps.o)
 .ARM.attributes
                0x0000089b       0x2d ../common/lib/libsymm_mpc8313_PtpGpsSe.a(MSTsyn_gps.o)
 .ARM.attributes
                0x000008c8       0x2d ../common/lib/libsymm_mpc8313_PtpGpsSe.a(MSTannc_gps.o)
 .ARM.attributes
                0x000008f5       0x2d ../common/lib/libsymm_mpc8313_PtpGpsSe.a(CIFmain_gps.o)
 .ARM.attributes
                0x00000922       0x2d ../common/lib/libsymm_mpc8313_PtpGpsSe.a(TSUmain_gps.o)
 .ARM.attributes
                0x0000094f       0x2d ../common/lib/libsymm_mpc8313_PtpGpsSe.a(FIO_gps.o)
 .ARM.attributes
                0x0000097c       0x2d ../common/lib/libsymm_mpc8313_PtpGpsSe.a(FIOerr_gps.o)
 .ARM.attributes
                0x000009a9       0x2d ../common/lib/libsymm_mpc8313_PtpGpsSe.a(FLTno_gps.o)
 .ARM.attributes
                0x000009d6       0x2d ../common/lib/libsymm_mpc8313_PtpGpsSe.a(tod_gps.o)
 .ARM.attributes
                0x00000a03       0x2d ../common/lib/libsymm_mpc8313_PtpGpsSe.a(TGT_gps.o)
 .ARM.attributes
                0x00000a30       0x2d ../common/lib/libsymm_mpc8313_PtpGpsSe.a(SISmpool_gps.o)
 .ARM.attributes
                0x00000a5d       0x2d ../common/lib/libsymm_mpc8313_PtpGpsSe.a(SISmain_gps.o)
 .ARM.attributes
                0x00000a8a       0x2d ../common/lib/libsymm_mpc8313_PtpGpsSe.a(SISevent_gps.o)
 .ARM.attributes
                0x00000ab7       0x2d ../common/lib/libsymm_mpc8313_PtpGpsSe.a(SISmbox_gps.o)
 .ARM.attributes
                0x00000ae4       0x2d ../common/lib/libsymm_mpc8313_PtpGpsSe.a(GOE_gps.o)
 .ARM.attributes
                0x00000b11       0x2d ../common/lib/libsymm_mpc8313_PtpGpsSe.a(GN_GPS_Task.o)
 .ARM.attributes
                0x00000b3e       0x2d ../common/lib/libsymm_mpc8313_PtpGpsSe.a(UCDmain_gps.o)
 .ARM.attributes
                0x00000b6b       0x2d ../common/lib/libsymm_mpc8313_PtpGpsSe.a(PTPmath_gps.o)
 .ARM.attributes
                0x00000b98       0x2d ../common/lib/libsymm_mpc8313_PtpGpsSe.a(CTLbmc_gps.o)
 .ARM.attributes
                0x00000bc5       0x2d ../common/lib/libsymm_mpc8313_PtpGpsSe.a(MNTget_gps.o)
 .ARM.attributes
                0x00000bf2       0x2d ../common/lib/libsymm_mpc8313_PtpGpsSe.a(NIFrx_gps.o)
 .ARM.attributes
                0x00000c1f       0x2d ../common/lib/libsymm_mpc8313_PtpGpsSe.a(UCMannc_gps.o)
 .ARM.attributes
                0x00000c4c       0x2d ../common/lib/libsymm_mpc8313_PtpGpsSe.a(UCMsyn_gps.o)
 .ARM.attributes
                0x00000c79       0x2d ../common/lib/libsymm_mpc8313_PtpGpsSe.a(UCMdel_gps.o)
 .ARM.attributes
                0x00000ca6       0x2d ../common/lib/libsymm_mpc8313_PtpGpsSe.a(MSTdel_gps.o)
 .ARM.attributes
                0x00000cd3       0x2d ../common/lib/libsymm_mpc8313_PtpGpsSe.a(sc_ptp_mgmt_gps.o)
 .ARM.attributes
                0x00000d00       0x2d ../common/lib/libsymm_mpc8313_PtpGpsSe.a(sc_util_gps.o)
 .ARM.attributes
                0x00000d2d       0x1f /opt/sourcery-arm-201203/bin/../lib/gcc/arm-none-linux-gnueabi/4.6.3/libgcc.a(_udivsi3.o)
 .ARM.attributes
                0x00000d4c       0x1f /opt/sourcery-arm-201203/bin/../lib/gcc/arm-none-linux-gnueabi/4.6.3/libgcc.a(_divsi3.o)
 .ARM.attributes
                0x00000d6b       0x1f /opt/sourcery-arm-201203/bin/../lib/gcc/arm-none-linux-gnueabi/4.6.3/libgcc.a(_arm_addsubdf3.o)
 .ARM.attributes
                0x00000d8a       0x1f /opt/sourcery-arm-201203/bin/../lib/gcc/arm-none-linux-gnueabi/4.6.3/libgcc.a(_arm_muldivdf3.o)
 .ARM.attributes
                0x00000da9       0x1f /opt/sourcery-arm-201203/bin/../lib/gcc/arm-none-linux-gnueabi/4.6.3/libgcc.a(_arm_cmpdf2.o)
 .ARM.attributes
                0x00000dc8       0x1f /opt/sourcery-arm-201203/bin/../lib/gcc/arm-none-linux-gnueabi/4.6.3/libgcc.a(_arm_fixdfsi.o)
 .ARM.attributes
                0x00000de7       0x1f /opt/sourcery-arm-201203/bin/../lib/gcc/arm-none-linux-gnueabi/4.6.3/libgcc.a(_arm_fixunsdfsi.o)
 .ARM.attributes
                0x00000e06       0x1f /opt/sourcery-arm-201203/bin/../lib/gcc/arm-none-linux-gnueabi/4.6.3/libgcc.a(_arm_truncdfsf2.o)
 .ARM.attributes
                0x00000e25       0x1f /opt/sourcery-arm-201203/bin/../lib/gcc/arm-none-linux-gnueabi/4.6.3/libgcc.a(_arm_cmpsf2.o)
 .ARM.attributes
                0x00000e44       0x1f /opt/sourcery-arm-201203/bin/../lib/gcc/arm-none-linux-gnueabi/4.6.3/libgcc.a(_aeabi_ldivmod.o)
 .ARM.attributes
                0x00000e63       0x1f /opt/sourcery-arm-201203/bin/../lib/gcc/arm-none-linux-gnueabi/4.6.3/libgcc.a(_aeabi_uldivmod.o)
 .ARM.attributes
                0x00000e82       0x1f /opt/sourcery-arm-201203/bin/../lib/gcc/arm-none-linux-gnueabi/4.6.3/libgcc.a(_dvmd_lnx.o)
 .ARM.attributes
                0x00000ea1       0x2d /opt/sourcery-arm-201203/bin/../lib/gcc/arm-none-linux-gnueabi/4.6.3/libgcc.a(_fixdfdi.o)
 .ARM.attributes
                0x00000ece       0x2d /opt/sourcery-arm-201203/bin/../lib/gcc/arm-none-linux-gnueabi/4.6.3/libgcc.a(_fixunsdfdi.o)
 .ARM.attributes
                0x00000efb       0x2d /opt/sourcery-arm-201203/bin/../lib/gcc/arm-none-linux-gnueabi/4.6.3/libgcc.a(bpabi.o)
 .ARM.attributes
                0x00000f28       0x2d /opt/sourcery-arm-201203/bin/../lib/gcc/arm-none-linux-gnueabi/4.6.3/libgcc.a(_divdi3.o)
 .ARM.attributes
                0x00000f55       0x2d /opt/sourcery-arm-201203/bin/../lib/gcc/arm-none-linux-gnueabi/4.6.3/libgcc.a(_udivdi3.o)
 .ARM.attributes
                0x00000f82       0x2d /opt/sourcery-arm-201203/bin/../arm-none-linux-gnueabi/libc/usr/lib/libc_nonshared.a(elf-init.oS)
 .ARM.attributes
                0x00000faf       0x2d /opt/sourcery-arm-201203/bin/../lib/gcc/arm-none-linux-gnueabi/4.6.3/crtend.o
 .ARM.attributes
                0x00000fdc       0x2d /opt/sourcery-arm-201203/bin/../arm-none-linux-gnueabi/libc/usr/lib/crtn.o

.debug
 *(.debug)

.line
 *(.line)

.debug_srcinfo
 *(.debug_srcinfo)

.debug_sfnames
 *(.debug_sfnames)

.debug_aranges  0x00000000      0x8c8
 *(.debug_aranges)
 .debug_aranges
                0x00000000       0x20 ./natsemi_util/epl_1588_gps.o
 .debug_aranges
                0x00000020       0x20 ./timestamper_if/sc_timestamp_gps.o
 .debug_aranges
                0x00000040       0x20 ./clock_if/sc_clock_if_gps.o
 .debug_aranges
                0x00000060       0x20 ../common/network_if/sc_network_if_gps.o
 .debug_aranges
                0x00000080       0x20 ../common/log/sc_log_gps.o
 .debug_aranges
                0x000000a0       0x20 ../common/user_if/sc_ui_gps.o
 .debug_aranges
                0x000000c0       0x20 ../common/config_if/sc_readconfig_gps.o
 .debug_aranges
                0x000000e0       0x20 ../common/chan_processing_if/sc_SSM_handling_gps.o
 .debug_aranges
                0x00000100       0x28 ../common/main_gps.o
 .debug_aranges
                0x00000128       0x20 ../common/se_if/sc_se_if.o
 .debug_aranges
                0x00000148       0x20 ../common/gps_if/sc_gps_if.o
 .debug_aranges
                0x00000168       0x20 ../common/lib/libsymm_mpc8313_PtpGpsSe.a(sc_chan_gps.o)
 .debug_aranges
                0x00000188       0x20 ../common/lib/libsymm_mpc8313_PtpGpsSe.a(CLK_gps.o)
 .debug_aranges
                0x000001a8       0x20 ../common/lib/libsymm_mpc8313_PtpGpsSe.a(clk_ana_gps.o)
 .debug_aranges
                0x000001c8       0x20 ../common/lib/libsymm_mpc8313_PtpGpsSe.a(clk_acq_gps.o)
 .debug_aranges
                0x000001e8       0x20 ../common/lib/libsymm_mpc8313_PtpGpsSe.a(clk_input_gps.o)
 .debug_aranges
                0x00000208       0x20 ../common/lib/libsymm_mpc8313_PtpGpsSe.a(sc_ptp_servo_gps.o)
 .debug_aranges
                0x00000228       0x20 ../common/lib/libsymm_mpc8313_PtpGpsSe.a(sc_system_gps.o)
 .debug_aranges
                0x00000248       0x20 ../common/lib/libsymm_mpc8313_PtpGpsSe.a(DBG_gps.o)
 .debug_aranges
                0x00000268       0x20 ../common/lib/libsymm_mpc8313_PtpGpsSe.a(sc_mnt_gps.o)
 .debug_aranges
                0x00000288       0x20 ../common/lib/libsymm_mpc8313_PtpGpsSe.a(THD_gps.o)
 .debug_aranges
                0x000002a8       0x20 ../common/lib/libsymm_mpc8313_PtpGpsSe.a(sc_gps.o)
 .debug_aranges
                0x000002c8       0x20 ../common/lib/libsymm_mpc8313_PtpGpsSe.a(GPS.o)
 .debug_aranges
                0x000002e8       0x20 ../common/lib/libsymm_mpc8313_PtpGpsSe.a(SE.o)
 .debug_aranges
                0x00000308       0x20 ../common/lib/libsymm_mpc8313_PtpGpsSe.a(PTP_gps.o)
 .debug_aranges
                0x00000328       0x20 ../common/lib/libsymm_mpc8313_PtpGpsSe.a(CTLmain_gps.o)
 .debug_aranges
                0x00000348       0x20 ../common/lib/libsymm_mpc8313_PtpGpsSe.a(CTLflt_gps.o)
 .debug_aranges
                0x00000368       0x20 ../common/lib/libsymm_mpc8313_PtpGpsSe.a(CTLds_gps.o)
 .debug_aranges
                0x00000388       0x20 ../common/lib/libsymm_mpc8313_PtpGpsSe.a(CLKflt_gps.o)
 .debug_aranges
                0x000003a8       0x20 ../common/lib/libsymm_mpc8313_PtpGpsSe.a(SLVdel_gps.o)
 .debug_aranges
                0x000003c8       0x20 ../common/lib/libsymm_mpc8313_PtpGpsSe.a(SLVdel_queue_gps.o)
 .debug_aranges
                0x000003e8       0x20 ../common/lib/libsymm_mpc8313_PtpGpsSe.a(SLVsyn_gps.o)
 .debug_aranges
                0x00000408       0x20 ../common/lib/libsymm_mpc8313_PtpGpsSe.a(SLVmain_gps.o)
 .debug_aranges
                0x00000428       0x20 ../common/lib/libsymm_mpc8313_PtpGpsSe.a(MNTmain_gps.o)
 .debug_aranges
                0x00000448       0x20 ../common/lib/libsymm_mpc8313_PtpGpsSe.a(MNTapi_gps.o)
 .debug_aranges
                0x00000468       0x20 ../common/lib/libsymm_mpc8313_PtpGpsSe.a(MNTmsg_gps.o)
 .debug_aranges
                0x00000488       0x20 ../common/lib/libsymm_mpc8313_PtpGpsSe.a(NIFmain_gps.o)
 .debug_aranges
                0x000004a8       0x20 ../common/lib/libsymm_mpc8313_PtpGpsSe.a(NIFtx_gps.o)
 .debug_aranges
                0x000004c8       0x20 ../common/lib/libsymm_mpc8313_PtpGpsSe.a(UCMmain_gps.o)
 .debug_aranges
                0x000004e8       0x20 ../common/lib/libsymm_mpc8313_PtpGpsSe.a(DISmain_gps.o)
 .debug_aranges
                0x00000508       0x20 ../common/lib/libsymm_mpc8313_PtpGpsSe.a(DISnet_gps.o)
 .debug_aranges
                0x00000528       0x20 ../common/lib/libsymm_mpc8313_PtpGpsSe.a(DISrx_gps.o)
 .debug_aranges
                0x00000548       0x20 ../common/lib/libsymm_mpc8313_PtpGpsSe.a(DIStx_gps.o)
 .debug_aranges
                0x00000568       0x20 ../common/lib/libsymm_mpc8313_PtpGpsSe.a(MSTmain_gps.o)
 .debug_aranges
                0x00000588       0x20 ../common/lib/libsymm_mpc8313_PtpGpsSe.a(MSTsyn_gps.o)
 .debug_aranges
                0x000005a8       0x20 ../common/lib/libsymm_mpc8313_PtpGpsSe.a(MSTannc_gps.o)
 .debug_aranges
                0x000005c8       0x20 ../common/lib/libsymm_mpc8313_PtpGpsSe.a(CIFmain_gps.o)
 .debug_aranges
                0x000005e8       0x20 ../common/lib/libsymm_mpc8313_PtpGpsSe.a(TSUmain_gps.o)
 .debug_aranges
                0x00000608       0x20 ../common/lib/libsymm_mpc8313_PtpGpsSe.a(FIO_gps.o)
 .debug_aranges
                0x00000628       0x20 ../common/lib/libsymm_mpc8313_PtpGpsSe.a(FIOerr_gps.o)
 .debug_aranges
                0x00000648       0x20 ../common/lib/libsymm_mpc8313_PtpGpsSe.a(FLTno_gps.o)
 .debug_aranges
                0x00000668       0x20 ../common/lib/libsymm_mpc8313_PtpGpsSe.a(tod_gps.o)
 .debug_aranges
                0x00000688       0x20 ../common/lib/libsymm_mpc8313_PtpGpsSe.a(TGT_gps.o)
 .debug_aranges
                0x000006a8       0x20 ../common/lib/libsymm_mpc8313_PtpGpsSe.a(SISmpool_gps.o)
 .debug_aranges
                0x000006c8       0x20 ../common/lib/libsymm_mpc8313_PtpGpsSe.a(SISmain_gps.o)
 .debug_aranges
                0x000006e8       0x20 ../common/lib/libsymm_mpc8313_PtpGpsSe.a(SISevent_gps.o)
 .debug_aranges
                0x00000708       0x20 ../common/lib/libsymm_mpc8313_PtpGpsSe.a(SISmbox_gps.o)
 .debug_aranges
                0x00000728       0x20 ../common/lib/libsymm_mpc8313_PtpGpsSe.a(GOE_gps.o)
 .debug_aranges
                0x00000748       0x20 ../common/lib/libsymm_mpc8313_PtpGpsSe.a(GN_GPS_Task.o)
 .debug_aranges
                0x00000768       0x20 ../common/lib/libsymm_mpc8313_PtpGpsSe.a(UCDmain_gps.o)
 .debug_aranges
                0x00000788       0x20 ../common/lib/libsymm_mpc8313_PtpGpsSe.a(PTPmath_gps.o)
 .debug_aranges
                0x000007a8       0x20 ../common/lib/libsymm_mpc8313_PtpGpsSe.a(CTLbmc_gps.o)
 .debug_aranges
                0x000007c8       0x20 ../common/lib/libsymm_mpc8313_PtpGpsSe.a(MNTget_gps.o)
 .debug_aranges
                0x000007e8       0x20 ../common/lib/libsymm_mpc8313_PtpGpsSe.a(NIFrx_gps.o)
 .debug_aranges
                0x00000808       0x20 ../common/lib/libsymm_mpc8313_PtpGpsSe.a(UCMannc_gps.o)
 .debug_aranges
                0x00000828       0x20 ../common/lib/libsymm_mpc8313_PtpGpsSe.a(UCMsyn_gps.o)
 .debug_aranges
                0x00000848       0x20 ../common/lib/libsymm_mpc8313_PtpGpsSe.a(UCMdel_gps.o)
 .debug_aranges
                0x00000868       0x20 ../common/lib/libsymm_mpc8313_PtpGpsSe.a(MSTdel_gps.o)
 .debug_aranges
                0x00000888       0x20 ../common/lib/libsymm_mpc8313_PtpGpsSe.a(sc_ptp_mgmt_gps.o)
 .debug_aranges
                0x000008a8       0x20 ../common/lib/libsymm_mpc8313_PtpGpsSe.a(sc_util_gps.o)

.debug_pubnames
 *(.debug_pubnames)

.debug_info     0x00000000    0x46787
 *(.debug_info .gnu.linkonce.wi.*)
 .debug_info    0x00000000     0x2643 ./natsemi_util/epl_1588_gps.o
 .debug_info    0x00002643      0x7cf ./timestamper_if/sc_timestamp_gps.o
 .debug_info    0x00002e12     0x16c6 ./clock_if/sc_clock_if_gps.o
 .debug_info    0x000044d8     0x19e3 ../common/network_if/sc_network_if_gps.o
 .debug_info    0x00005ebb      0x616 ../common/log/sc_log_gps.o
 .debug_info    0x000064d1     0x29fd ../common/user_if/sc_ui_gps.o
 .debug_info    0x00008ece     0x1d3d ../common/config_if/sc_readconfig_gps.o
 .debug_info    0x0000ac0b      0x78e ../common/chan_processing_if/sc_SSM_handling_gps.o
 .debug_info    0x0000b399     0x1eb1 ../common/main_gps.o
 .debug_info    0x0000d24a      0x36a ../common/se_if/sc_se_if.o
 .debug_info    0x0000d5b4      0x53c ../common/gps_if/sc_gps_if.o
 .debug_info    0x0000daf0     0x234a ../common/lib/libsymm_mpc8313_PtpGpsSe.a(sc_chan_gps.o)
 .debug_info    0x0000fe3a       0x93 ../common/lib/libsymm_mpc8313_PtpGpsSe.a(sc_alarms_gps.o)
 .debug_info    0x0000fecd     0x3fdd ../common/lib/libsymm_mpc8313_PtpGpsSe.a(CLK_gps.o)
 .debug_info    0x00013eaa     0x1b0d ../common/lib/libsymm_mpc8313_PtpGpsSe.a(clk_ana_gps.o)
 .debug_info    0x000159b7      0x2c7 ../common/lib/libsymm_mpc8313_PtpGpsSe.a(clk_acq_gps.o)
 .debug_info    0x00015c7e     0x1bb9 ../common/lib/libsymm_mpc8313_PtpGpsSe.a(clk_input_gps.o)
 .debug_info    0x00017837     0x20fc ../common/lib/libsymm_mpc8313_PtpGpsSe.a(clk_main_gps.o)
 .debug_info    0x00019933     0x1bab ../common/lib/libsymm_mpc8313_PtpGpsSe.a(sc_ptp_servo_gps.o)
 .debug_info    0x0001b4de     0x105a ../common/lib/libsymm_mpc8313_PtpGpsSe.a(sc_system_gps.o)
 .debug_info    0x0001c538      0x3b9 ../common/lib/libsymm_mpc8313_PtpGpsSe.a(DBG_gps.o)
 .debug_info    0x0001c8f1     0x1584 ../common/lib/libsymm_mpc8313_PtpGpsSe.a(sc_mnt_gps.o)
 .debug_info    0x0001de75      0x6a7 ../common/lib/libsymm_mpc8313_PtpGpsSe.a(THD_gps.o)
 .debug_info    0x0001e51c      0x21d ../common/lib/libsymm_mpc8313_PtpGpsSe.a(sc_gps.o)
 .debug_info    0x0001e739      0x551 ../common/lib/libsymm_mpc8313_PtpGpsSe.a(GPS.o)
 .debug_info    0x0001ec8a      0x22e ../common/lib/libsymm_mpc8313_PtpGpsSe.a(SE.o)
 .debug_info    0x0001eeb8     0x1873 ../common/lib/libsymm_mpc8313_PtpGpsSe.a(PTP_gps.o)
 .debug_info    0x0002072b     0x1e38 ../common/lib/libsymm_mpc8313_PtpGpsSe.a(CTLmain_gps.o)
 .debug_info    0x00022563      0x862 ../common/lib/libsymm_mpc8313_PtpGpsSe.a(CTLflt_gps.o)
 .debug_info    0x00022dc5     0x1499 ../common/lib/libsymm_mpc8313_PtpGpsSe.a(CTLds_gps.o)
 .debug_info    0x0002425e      0x70b ../common/lib/libsymm_mpc8313_PtpGpsSe.a(CLKflt_gps.o)
 .debug_info    0x00024969      0xef2 ../common/lib/libsymm_mpc8313_PtpGpsSe.a(SLVdel_gps.o)
 .debug_info    0x0002585b      0x3a8 ../common/lib/libsymm_mpc8313_PtpGpsSe.a(SLVdel_queue_gps.o)
 .debug_info    0x00025c03     0x1024 ../common/lib/libsymm_mpc8313_PtpGpsSe.a(SLVsyn_gps.o)
 .debug_info    0x00026c27      0x1dc ../common/lib/libsymm_mpc8313_PtpGpsSe.a(SLVmain_gps.o)
 .debug_info    0x00026e03     0x1bae ../common/lib/libsymm_mpc8313_PtpGpsSe.a(MNTmain_gps.o)
 .debug_info    0x000289b1     0x27a2 ../common/lib/libsymm_mpc8313_PtpGpsSe.a(MNTapi_gps.o)
 .debug_info    0x0002b153     0x1e22 ../common/lib/libsymm_mpc8313_PtpGpsSe.a(MNTmsg_gps.o)
 .debug_info    0x0002cf75      0xab3 ../common/lib/libsymm_mpc8313_PtpGpsSe.a(NIFmain_gps.o)
 .debug_info    0x0002da28     0x1743 ../common/lib/libsymm_mpc8313_PtpGpsSe.a(NIFtx_gps.o)
 .debug_info    0x0002f16b     0x11aa ../common/lib/libsymm_mpc8313_PtpGpsSe.a(UCMmain_gps.o)
 .debug_info    0x00030315      0xdb5 ../common/lib/libsymm_mpc8313_PtpGpsSe.a(DISmain_gps.o)
 .debug_info    0x000310ca      0xe26 ../common/lib/libsymm_mpc8313_PtpGpsSe.a(DISnet_gps.o)
 .debug_info    0x00031ef0     0x182b ../common/lib/libsymm_mpc8313_PtpGpsSe.a(DISrx_gps.o)
 .debug_info    0x0003371b     0x18f6 ../common/lib/libsymm_mpc8313_PtpGpsSe.a(DIStx_gps.o)
 .debug_info    0x00035011      0x1dc ../common/lib/libsymm_mpc8313_PtpGpsSe.a(MSTmain_gps.o)
 .debug_info    0x000351ed      0xdd0 ../common/lib/libsymm_mpc8313_PtpGpsSe.a(MSTsyn_gps.o)
 .debug_info    0x00035fbd      0xdbd ../common/lib/libsymm_mpc8313_PtpGpsSe.a(MSTannc_gps.o)
 .debug_info    0x00036d7a      0x397 ../common/lib/libsymm_mpc8313_PtpGpsSe.a(CIFmain_gps.o)
 .debug_info    0x00037111      0x473 ../common/lib/libsymm_mpc8313_PtpGpsSe.a(TSUmain_gps.o)
 .debug_info    0x00037584      0xcd2 ../common/lib/libsymm_mpc8313_PtpGpsSe.a(FIO_gps.o)
 .debug_info    0x00038256       0xde ../common/lib/libsymm_mpc8313_PtpGpsSe.a(FIOerr_gps.o)
 .debug_info    0x00038334      0x71a ../common/lib/libsymm_mpc8313_PtpGpsSe.a(FLTno_gps.o)
 .debug_info    0x00038a4e      0x4d5 ../common/lib/libsymm_mpc8313_PtpGpsSe.a(tod_gps.o)
 .debug_info    0x00038f23      0x671 ../common/lib/libsymm_mpc8313_PtpGpsSe.a(TGT_gps.o)
 .debug_info    0x00039594      0x4cc ../common/lib/libsymm_mpc8313_PtpGpsSe.a(SISmpool_gps.o)
 .debug_info    0x00039a60      0x3af ../common/lib/libsymm_mpc8313_PtpGpsSe.a(SISmain_gps.o)
 .debug_info    0x00039e0f      0x324 ../common/lib/libsymm_mpc8313_PtpGpsSe.a(SISevent_gps.o)
 .debug_info    0x0003a133      0xd81 ../common/lib/libsymm_mpc8313_PtpGpsSe.a(SISmbox_gps.o)
 .debug_info    0x0003aeb4     0x11a8 ../common/lib/libsymm_mpc8313_PtpGpsSe.a(GOE_gps.o)
 .debug_info    0x0003c05c      0xd2a ../common/lib/libsymm_mpc8313_PtpGpsSe.a(GN_GPS_Task.o)
 .debug_info    0x0003cd86     0x1415 ../common/lib/libsymm_mpc8313_PtpGpsSe.a(UCDmain_gps.o)
 .debug_info    0x0003e19b      0xaf9 ../common/lib/libsymm_mpc8313_PtpGpsSe.a(PTPmath_gps.o)
 .debug_info    0x0003ec94     0x16ae ../common/lib/libsymm_mpc8313_PtpGpsSe.a(CTLbmc_gps.o)
 .debug_info    0x00040342     0x1091 ../common/lib/libsymm_mpc8313_PtpGpsSe.a(MNTget_gps.o)
 .debug_info    0x000413d3     0x1014 ../common/lib/libsymm_mpc8313_PtpGpsSe.a(NIFrx_gps.o)
 .debug_info    0x000423e7      0xe3d ../common/lib/libsymm_mpc8313_PtpGpsSe.a(UCMannc_gps.o)
 .debug_info    0x00043224      0xe89 ../common/lib/libsymm_mpc8313_PtpGpsSe.a(UCMsyn_gps.o)
 .debug_info    0x000440ad      0xd0d ../common/lib/libsymm_mpc8313_PtpGpsSe.a(UCMdel_gps.o)
 .debug_info    0x00044dba      0xd7a ../common/lib/libsymm_mpc8313_PtpGpsSe.a(MSTdel_gps.o)
 .debug_info    0x00045b34      0xaad ../common/lib/libsymm_mpc8313_PtpGpsSe.a(sc_ptp_mgmt_gps.o)
 .debug_info    0x000465e1      0x1a6 ../common/lib/libsymm_mpc8313_PtpGpsSe.a(sc_util_gps.o)

.debug_abbrev   0x00000000     0x72de
 *(.debug_abbrev)
 .debug_abbrev  0x00000000      0x402 ./natsemi_util/epl_1588_gps.o
 .debug_abbrev  0x00000402      0x1f1 ./timestamper_if/sc_timestamp_gps.o
 .debug_abbrev  0x000005f3      0x362 ./clock_if/sc_clock_if_gps.o
 .debug_abbrev  0x00000955      0x345 ../common/network_if/sc_network_if_gps.o
 .debug_abbrev  0x00000c9a      0x207 ../common/log/sc_log_gps.o
 .debug_abbrev  0x00000ea1      0x3d9 ../common/user_if/sc_ui_gps.o
 .debug_abbrev  0x0000127a      0x359 ../common/config_if/sc_readconfig_gps.o
 .debug_abbrev  0x000015d3      0x1eb ../common/chan_processing_if/sc_SSM_handling_gps.o
 .debug_abbrev  0x000017be      0x3b6 ../common/main_gps.o
 .debug_abbrev  0x00001b74       0xfd ../common/se_if/sc_se_if.o
 .debug_abbrev  0x00001c71      0x1a9 ../common/gps_if/sc_gps_if.o
 .debug_abbrev  0x00001e1a      0x1e1 ../common/lib/libsymm_mpc8313_PtpGpsSe.a(sc_chan_gps.o)
 .debug_abbrev  0x00001ffb       0x74 ../common/lib/libsymm_mpc8313_PtpGpsSe.a(sc_alarms_gps.o)
 .debug_abbrev  0x0000206f      0x2d1 ../common/lib/libsymm_mpc8313_PtpGpsSe.a(CLK_gps.o)
 .debug_abbrev  0x00002340      0x1c0 ../common/lib/libsymm_mpc8313_PtpGpsSe.a(clk_ana_gps.o)
 .debug_abbrev  0x00002500       0xc3 ../common/lib/libsymm_mpc8313_PtpGpsSe.a(clk_acq_gps.o)
 .debug_abbrev  0x000025c3      0x1e8 ../common/lib/libsymm_mpc8313_PtpGpsSe.a(clk_input_gps.o)
 .debug_abbrev  0x000027ab      0x136 ../common/lib/libsymm_mpc8313_PtpGpsSe.a(clk_main_gps.o)
 .debug_abbrev  0x000028e1      0x230 ../common/lib/libsymm_mpc8313_PtpGpsSe.a(sc_ptp_servo_gps.o)
 .debug_abbrev  0x00002b11      0x183 ../common/lib/libsymm_mpc8313_PtpGpsSe.a(sc_system_gps.o)
 .debug_abbrev  0x00002c94      0x14e ../common/lib/libsymm_mpc8313_PtpGpsSe.a(DBG_gps.o)
 .debug_abbrev  0x00002de2      0x1cc ../common/lib/libsymm_mpc8313_PtpGpsSe.a(sc_mnt_gps.o)
 .debug_abbrev  0x00002fae      0x1e8 ../common/lib/libsymm_mpc8313_PtpGpsSe.a(THD_gps.o)
 .debug_abbrev  0x00003196       0xa3 ../common/lib/libsymm_mpc8313_PtpGpsSe.a(sc_gps.o)
 .debug_abbrev  0x00003239      0x143 ../common/lib/libsymm_mpc8313_PtpGpsSe.a(GPS.o)
 .debug_abbrev  0x0000337c       0xd0 ../common/lib/libsymm_mpc8313_PtpGpsSe.a(SE.o)
 .debug_abbrev  0x0000344c      0x1c1 ../common/lib/libsymm_mpc8313_PtpGpsSe.a(PTP_gps.o)
 .debug_abbrev  0x0000360d      0x1f6 ../common/lib/libsymm_mpc8313_PtpGpsSe.a(CTLmain_gps.o)
 .debug_abbrev  0x00003803      0x150 ../common/lib/libsymm_mpc8313_PtpGpsSe.a(CTLflt_gps.o)
 .debug_abbrev  0x00003953      0x1cc ../common/lib/libsymm_mpc8313_PtpGpsSe.a(CTLds_gps.o)
 .debug_abbrev  0x00003b1f      0x17a ../common/lib/libsymm_mpc8313_PtpGpsSe.a(CLKflt_gps.o)
 .debug_abbrev  0x00003c99      0x137 ../common/lib/libsymm_mpc8313_PtpGpsSe.a(SLVdel_gps.o)
 .debug_abbrev  0x00003dd0      0x126 ../common/lib/libsymm_mpc8313_PtpGpsSe.a(SLVdel_queue_gps.o)
 .debug_abbrev  0x00003ef6      0x15b ../common/lib/libsymm_mpc8313_PtpGpsSe.a(SLVsyn_gps.o)
 .debug_abbrev  0x00004051       0xe1 ../common/lib/libsymm_mpc8313_PtpGpsSe.a(SLVmain_gps.o)
 .debug_abbrev  0x00004132      0x1f9 ../common/lib/libsymm_mpc8313_PtpGpsSe.a(MNTmain_gps.o)
 .debug_abbrev  0x0000432b      0x1ad ../common/lib/libsymm_mpc8313_PtpGpsSe.a(MNTapi_gps.o)
 .debug_abbrev  0x000044d8      0x1e7 ../common/lib/libsymm_mpc8313_PtpGpsSe.a(MNTmsg_gps.o)
 .debug_abbrev  0x000046bf      0x116 ../common/lib/libsymm_mpc8313_PtpGpsSe.a(NIFmain_gps.o)
 .debug_abbrev  0x000047d5      0x1b5 ../common/lib/libsymm_mpc8313_PtpGpsSe.a(NIFtx_gps.o)
 .debug_abbrev  0x0000498a      0x1a0 ../common/lib/libsymm_mpc8313_PtpGpsSe.a(UCMmain_gps.o)
 .debug_abbrev  0x00004b2a      0x14c ../common/lib/libsymm_mpc8313_PtpGpsSe.a(DISmain_gps.o)
 .debug_abbrev  0x00004c76      0x139 ../common/lib/libsymm_mpc8313_PtpGpsSe.a(DISnet_gps.o)
 .debug_abbrev  0x00004daf      0x184 ../common/lib/libsymm_mpc8313_PtpGpsSe.a(DISrx_gps.o)
 .debug_abbrev  0x00004f33      0x1c7 ../common/lib/libsymm_mpc8313_PtpGpsSe.a(DIStx_gps.o)
 .debug_abbrev  0x000050fa       0xe1 ../common/lib/libsymm_mpc8313_PtpGpsSe.a(MSTmain_gps.o)
 .debug_abbrev  0x000051db      0x117 ../common/lib/libsymm_mpc8313_PtpGpsSe.a(MSTsyn_gps.o)
 .debug_abbrev  0x000052f2      0x117 ../common/lib/libsymm_mpc8313_PtpGpsSe.a(MSTannc_gps.o)
 .debug_abbrev  0x00005409      0x159 ../common/lib/libsymm_mpc8313_PtpGpsSe.a(CIFmain_gps.o)
 .debug_abbrev  0x00005562      0x12c ../common/lib/libsymm_mpc8313_PtpGpsSe.a(TSUmain_gps.o)
 .debug_abbrev  0x0000568e      0x143 ../common/lib/libsymm_mpc8313_PtpGpsSe.a(FIO_gps.o)
 .debug_abbrev  0x000057d1       0x89 ../common/lib/libsymm_mpc8313_PtpGpsSe.a(FIOerr_gps.o)
 .debug_abbrev  0x0000585a      0x143 ../common/lib/libsymm_mpc8313_PtpGpsSe.a(FLTno_gps.o)
 .debug_abbrev  0x0000599d      0x10c ../common/lib/libsymm_mpc8313_PtpGpsSe.a(tod_gps.o)
 .debug_abbrev  0x00005aa9      0x1ac ../common/lib/libsymm_mpc8313_PtpGpsSe.a(TGT_gps.o)
 .debug_abbrev  0x00005c55      0x134 ../common/lib/libsymm_mpc8313_PtpGpsSe.a(SISmpool_gps.o)
 .debug_abbrev  0x00005d89      0x159 ../common/lib/libsymm_mpc8313_PtpGpsSe.a(SISmain_gps.o)
 .debug_abbrev  0x00005ee2       0xfc ../common/lib/libsymm_mpc8313_PtpGpsSe.a(SISevent_gps.o)
 .debug_abbrev  0x00005fde      0x155 ../common/lib/libsymm_mpc8313_PtpGpsSe.a(SISmbox_gps.o)
 .debug_abbrev  0x00006133      0x233 ../common/lib/libsymm_mpc8313_PtpGpsSe.a(GOE_gps.o)
 .debug_abbrev  0x00006366      0x206 ../common/lib/libsymm_mpc8313_PtpGpsSe.a(GN_GPS_Task.o)
 .debug_abbrev  0x0000656c      0x1c2 ../common/lib/libsymm_mpc8313_PtpGpsSe.a(UCDmain_gps.o)
 .debug_abbrev  0x0000672e      0x135 ../common/lib/libsymm_mpc8313_PtpGpsSe.a(PTPmath_gps.o)
 .debug_abbrev  0x00006863      0x195 ../common/lib/libsymm_mpc8313_PtpGpsSe.a(CTLbmc_gps.o)
 .debug_abbrev  0x000069f8      0x15a ../common/lib/libsymm_mpc8313_PtpGpsSe.a(MNTget_gps.o)
 .debug_abbrev  0x00006b52      0x14b ../common/lib/libsymm_mpc8313_PtpGpsSe.a(NIFrx_gps.o)
 .debug_abbrev  0x00006c9d      0x11e ../common/lib/libsymm_mpc8313_PtpGpsSe.a(UCMannc_gps.o)
 .debug_abbrev  0x00006dbb      0x14e ../common/lib/libsymm_mpc8313_PtpGpsSe.a(UCMsyn_gps.o)
 .debug_abbrev  0x00006f09      0x11e ../common/lib/libsymm_mpc8313_PtpGpsSe.a(UCMdel_gps.o)
 .debug_abbrev  0x00007027      0x11e ../common/lib/libsymm_mpc8313_PtpGpsSe.a(MSTdel_gps.o)
 .debug_abbrev  0x00007145       0xff ../common/lib/libsymm_mpc8313_PtpGpsSe.a(sc_ptp_mgmt_gps.o)
 .debug_abbrev  0x00007244       0x9a ../common/lib/libsymm_mpc8313_PtpGpsSe.a(sc_util_gps.o)

.debug_line     0x00000000    0x11363
 *(.debug_line)
 .debug_line    0x00000000      0x9bb ./natsemi_util/epl_1588_gps.o
 .debug_line    0x000009bb      0x2bc ./timestamper_if/sc_timestamp_gps.o
 .debug_line    0x00000c77      0x746 ./clock_if/sc_clock_if_gps.o
 .debug_line    0x000013bd      0x80a ../common/network_if/sc_network_if_gps.o
 .debug_line    0x00001bc7      0x28c ../common/log/sc_log_gps.o
 .debug_line    0x00001e53      0xf6a ../common/user_if/sc_ui_gps.o
 .debug_line    0x00002dbd      0x856 ../common/config_if/sc_readconfig_gps.o
 .debug_line    0x00003613      0x2d9 ../common/chan_processing_if/sc_SSM_handling_gps.o
 .debug_line    0x000038ec      0x74d ../common/main_gps.o
 .debug_line    0x00004039      0x16f ../common/se_if/sc_se_if.o
 .debug_line    0x000041a8      0x227 ../common/gps_if/sc_gps_if.o
 .debug_line    0x000043cf      0xc5e ../common/lib/libsymm_mpc8313_PtpGpsSe.a(sc_chan_gps.o)
 .debug_line    0x0000502d       0x5b ../common/lib/libsymm_mpc8313_PtpGpsSe.a(sc_alarms_gps.o)
 .debug_line    0x00005088     0x2015 ../common/lib/libsymm_mpc8313_PtpGpsSe.a(CLK_gps.o)
 .debug_line    0x0000709d      0xe6f ../common/lib/libsymm_mpc8313_PtpGpsSe.a(clk_ana_gps.o)
 .debug_line    0x00007f0c      0x14a ../common/lib/libsymm_mpc8313_PtpGpsSe.a(clk_acq_gps.o)
 .debug_line    0x00008056      0xf5a ../common/lib/libsymm_mpc8313_PtpGpsSe.a(clk_input_gps.o)
 .debug_line    0x00008fb0      0x12b ../common/lib/libsymm_mpc8313_PtpGpsSe.a(clk_main_gps.o)
 .debug_line    0x000090db      0x50f ../common/lib/libsymm_mpc8313_PtpGpsSe.a(sc_ptp_servo_gps.o)
 .debug_line    0x000095ea      0x2f4 ../common/lib/libsymm_mpc8313_PtpGpsSe.a(sc_system_gps.o)
 .debug_line    0x000098de      0x1ee ../common/lib/libsymm_mpc8313_PtpGpsSe.a(DBG_gps.o)
 .debug_line    0x00009acc      0x451 ../common/lib/libsymm_mpc8313_PtpGpsSe.a(sc_mnt_gps.o)
 .debug_line    0x00009f1d      0x3f1 ../common/lib/libsymm_mpc8313_PtpGpsSe.a(THD_gps.o)
 .debug_line    0x0000a30e       0xbd ../common/lib/libsymm_mpc8313_PtpGpsSe.a(sc_gps.o)
 .debug_line    0x0000a3cb      0x173 ../common/lib/libsymm_mpc8313_PtpGpsSe.a(GPS.o)
 .debug_line    0x0000a53e      0x13c ../common/lib/libsymm_mpc8313_PtpGpsSe.a(SE.o)
 .debug_line    0x0000a67a      0x1e5 ../common/lib/libsymm_mpc8313_PtpGpsSe.a(PTP_gps.o)
 .debug_line    0x0000a85f      0x7bd ../common/lib/libsymm_mpc8313_PtpGpsSe.a(CTLmain_gps.o)
 .debug_line    0x0000b01c      0x1aa ../common/lib/libsymm_mpc8313_PtpGpsSe.a(CTLflt_gps.o)
 .debug_line    0x0000b1c6      0x42c ../common/lib/libsymm_mpc8313_PtpGpsSe.a(CTLds_gps.o)
 .debug_line    0x0000b5f2      0x126 ../common/lib/libsymm_mpc8313_PtpGpsSe.a(CLKflt_gps.o)
 .debug_line    0x0000b718      0x21b ../common/lib/libsymm_mpc8313_PtpGpsSe.a(SLVdel_gps.o)
 .debug_line    0x0000b933      0x115 ../common/lib/libsymm_mpc8313_PtpGpsSe.a(SLVdel_queue_gps.o)
 .debug_line    0x0000ba48      0x252 ../common/lib/libsymm_mpc8313_PtpGpsSe.a(SLVsyn_gps.o)
 .debug_line    0x0000bc9a       0xf8 ../common/lib/libsymm_mpc8313_PtpGpsSe.a(SLVmain_gps.o)
 .debug_line    0x0000bd92      0x397 ../common/lib/libsymm_mpc8313_PtpGpsSe.a(MNTmain_gps.o)
 .debug_line    0x0000c129      0x8d3 ../common/lib/libsymm_mpc8313_PtpGpsSe.a(MNTapi_gps.o)
 .debug_line    0x0000c9fc      0x53b ../common/lib/libsymm_mpc8313_PtpGpsSe.a(MNTmsg_gps.o)
 .debug_line    0x0000cf37       0xe5 ../common/lib/libsymm_mpc8313_PtpGpsSe.a(NIFmain_gps.o)
 .debug_line    0x0000d01c      0x3fe ../common/lib/libsymm_mpc8313_PtpGpsSe.a(NIFtx_gps.o)
 .debug_line    0x0000d41a      0x211 ../common/lib/libsymm_mpc8313_PtpGpsSe.a(UCMmain_gps.o)
 .debug_line    0x0000d62b      0x201 ../common/lib/libsymm_mpc8313_PtpGpsSe.a(DISmain_gps.o)
 .debug_line    0x0000d82c      0x192 ../common/lib/libsymm_mpc8313_PtpGpsSe.a(DISnet_gps.o)
 .debug_line    0x0000d9be      0x34f ../common/lib/libsymm_mpc8313_PtpGpsSe.a(DISrx_gps.o)
 .debug_line    0x0000dd0d      0x232 ../common/lib/libsymm_mpc8313_PtpGpsSe.a(DIStx_gps.o)
 .debug_line    0x0000df3f       0xf6 ../common/lib/libsymm_mpc8313_PtpGpsSe.a(MSTmain_gps.o)
 .debug_line    0x0000e035      0x12d ../common/lib/libsymm_mpc8313_PtpGpsSe.a(MSTsyn_gps.o)
 .debug_line    0x0000e162      0x126 ../common/lib/libsymm_mpc8313_PtpGpsSe.a(MSTannc_gps.o)
 .debug_line    0x0000e288      0x1b2 ../common/lib/libsymm_mpc8313_PtpGpsSe.a(CIFmain_gps.o)
 .debug_line    0x0000e43a      0x18b ../common/lib/libsymm_mpc8313_PtpGpsSe.a(TSUmain_gps.o)
 .debug_line    0x0000e5c5      0x24c ../common/lib/libsymm_mpc8313_PtpGpsSe.a(FIO_gps.o)
 .debug_line    0x0000e811       0xd4 ../common/lib/libsymm_mpc8313_PtpGpsSe.a(FIOerr_gps.o)
 .debug_line    0x0000e8e5      0x10a ../common/lib/libsymm_mpc8313_PtpGpsSe.a(FLTno_gps.o)
 .debug_line    0x0000e9ef      0x1cf ../common/lib/libsymm_mpc8313_PtpGpsSe.a(tod_gps.o)
 .debug_line    0x0000ebbe      0x254 ../common/lib/libsymm_mpc8313_PtpGpsSe.a(TGT_gps.o)
 .debug_line    0x0000ee12      0x220 ../common/lib/libsymm_mpc8313_PtpGpsSe.a(SISmpool_gps.o)
 .debug_line    0x0000f032      0x186 ../common/lib/libsymm_mpc8313_PtpGpsSe.a(SISmain_gps.o)
 .debug_line    0x0000f1b8      0x19f ../common/lib/libsymm_mpc8313_PtpGpsSe.a(SISevent_gps.o)
 .debug_line    0x0000f357      0x41e ../common/lib/libsymm_mpc8313_PtpGpsSe.a(SISmbox_gps.o)
 .debug_line    0x0000f775      0x443 ../common/lib/libsymm_mpc8313_PtpGpsSe.a(GOE_gps.o)
 .debug_line    0x0000fbb8      0x14e ../common/lib/libsymm_mpc8313_PtpGpsSe.a(GN_GPS_Task.o)
 .debug_line    0x0000fd06      0x314 ../common/lib/libsymm_mpc8313_PtpGpsSe.a(UCDmain_gps.o)
 .debug_line    0x0001001a      0x29d ../common/lib/libsymm_mpc8313_PtpGpsSe.a(PTPmath_gps.o)
 .debug_line    0x000102b7      0x391 ../common/lib/libsymm_mpc8313_PtpGpsSe.a(CTLbmc_gps.o)
 .debug_line    0x00010648      0x353 ../common/lib/libsymm_mpc8313_PtpGpsSe.a(MNTget_gps.o)
 .debug_line    0x0001099b      0x1b3 ../common/lib/libsymm_mpc8313_PtpGpsSe.a(NIFrx_gps.o)
 .debug_line    0x00010b4e      0x164 ../common/lib/libsymm_mpc8313_PtpGpsSe.a(UCMannc_gps.o)
 .debug_line    0x00010cb2      0x172 ../common/lib/libsymm_mpc8313_PtpGpsSe.a(UCMsyn_gps.o)
 .debug_line    0x00010e24      0x118 ../common/lib/libsymm_mpc8313_PtpGpsSe.a(UCMdel_gps.o)
 .debug_line    0x00010f3c      0x127 ../common/lib/libsymm_mpc8313_PtpGpsSe.a(MSTdel_gps.o)
 .debug_line    0x00011063      0x208 ../common/lib/libsymm_mpc8313_PtpGpsSe.a(sc_ptp_mgmt_gps.o)
 .debug_line    0x0001126b       0xf8 ../common/lib/libsymm_mpc8313_PtpGpsSe.a(sc_util_gps.o)

.debug_frame    0x00000000     0x658c
 *(.debug_frame)
 .debug_frame   0x00000000      0x468 ./natsemi_util/epl_1588_gps.o
 .debug_frame   0x00000468       0x48 ./timestamper_if/sc_timestamp_gps.o
 .debug_frame   0x000004b0      0x270 ./clock_if/sc_clock_if_gps.o
 .debug_frame   0x00000720      0x230 ../common/network_if/sc_network_if_gps.o
 .debug_frame   0x00000950       0x8c ../common/log/sc_log_gps.o
 .debug_frame   0x000009dc      0x154 ../common/user_if/sc_ui_gps.o
 .debug_frame   0x00000b30      0x2e0 ../common/config_if/sc_readconfig_gps.o
 .debug_frame   0x00000e10       0xb8 ../common/chan_processing_if/sc_SSM_handling_gps.o
 .debug_frame   0x00000ec8      0x174 ../common/main_gps.o
 .debug_frame   0x0000103c       0x30 ../common/se_if/sc_se_if.o
 .debug_frame   0x0000106c       0x98 ../common/gps_if/sc_gps_if.o
 .debug_frame   0x00001104      0x6b4 ../common/lib/libsymm_mpc8313_PtpGpsSe.a(sc_chan_gps.o)
 .debug_frame   0x000017b8      0xbc0 ../common/lib/libsymm_mpc8313_PtpGpsSe.a(CLK_gps.o)
 .debug_frame   0x00002378      0x374 ../common/lib/libsymm_mpc8313_PtpGpsSe.a(clk_ana_gps.o)
 .debug_frame   0x000026ec       0x30 ../common/lib/libsymm_mpc8313_PtpGpsSe.a(clk_acq_gps.o)
 .debug_frame   0x0000271c       0xd4 ../common/lib/libsymm_mpc8313_PtpGpsSe.a(clk_input_gps.o)
 .debug_frame   0x000027f0      0x43c ../common/lib/libsymm_mpc8313_PtpGpsSe.a(sc_ptp_servo_gps.o)
 .debug_frame   0x00002c2c      0x1ac ../common/lib/libsymm_mpc8313_PtpGpsSe.a(sc_system_gps.o)
 .debug_frame   0x00002dd8       0x9c ../common/lib/libsymm_mpc8313_PtpGpsSe.a(DBG_gps.o)
 .debug_frame   0x00002e74      0x354 ../common/lib/libsymm_mpc8313_PtpGpsSe.a(sc_mnt_gps.o)
 .debug_frame   0x000031c8      0x130 ../common/lib/libsymm_mpc8313_PtpGpsSe.a(THD_gps.o)
 .debug_frame   0x000032f8       0x2c ../common/lib/libsymm_mpc8313_PtpGpsSe.a(sc_gps.o)
 .debug_frame   0x00003324       0x9c ../common/lib/libsymm_mpc8313_PtpGpsSe.a(GPS.o)
 .debug_frame   0x000033c0       0x48 ../common/lib/libsymm_mpc8313_PtpGpsSe.a(SE.o)
 .debug_frame   0x00003408      0x15c ../common/lib/libsymm_mpc8313_PtpGpsSe.a(PTP_gps.o)
 .debug_frame   0x00003564      0x1bc ../common/lib/libsymm_mpc8313_PtpGpsSe.a(CTLmain_gps.o)
 .debug_frame   0x00003720       0xd0 ../common/lib/libsymm_mpc8313_PtpGpsSe.a(CTLflt_gps.o)
 .debug_frame   0x000037f0      0x2a8 ../common/lib/libsymm_mpc8313_PtpGpsSe.a(CTLds_gps.o)
 .debug_frame   0x00003a98       0xf4 ../common/lib/libsymm_mpc8313_PtpGpsSe.a(CLKflt_gps.o)
 .debug_frame   0x00003b8c       0x50 ../common/lib/libsymm_mpc8313_PtpGpsSe.a(SLVdel_gps.o)
 .debug_frame   0x00003bdc       0x4c ../common/lib/libsymm_mpc8313_PtpGpsSe.a(SLVdel_queue_gps.o)
 .debug_frame   0x00003c28       0x80 ../common/lib/libsymm_mpc8313_PtpGpsSe.a(SLVsyn_gps.o)
 .debug_frame   0x00003ca8       0x48 ../common/lib/libsymm_mpc8313_PtpGpsSe.a(SLVmain_gps.o)
 .debug_frame   0x00003cf0      0x1a0 ../common/lib/libsymm_mpc8313_PtpGpsSe.a(MNTmain_gps.o)
 .debug_frame   0x00003e90      0x590 ../common/lib/libsymm_mpc8313_PtpGpsSe.a(MNTapi_gps.o)
 .debug_frame   0x00004420      0x1f0 ../common/lib/libsymm_mpc8313_PtpGpsSe.a(MNTmsg_gps.o)
 .debug_frame   0x00004610       0x4c ../common/lib/libsymm_mpc8313_PtpGpsSe.a(NIFmain_gps.o)
 .debug_frame   0x0000465c      0x2cc ../common/lib/libsymm_mpc8313_PtpGpsSe.a(NIFtx_gps.o)
 .debug_frame   0x00004928      0x12c ../common/lib/libsymm_mpc8313_PtpGpsSe.a(UCMmain_gps.o)
 .debug_frame   0x00004a54       0x6c ../common/lib/libsymm_mpc8313_PtpGpsSe.a(DISmain_gps.o)
 .debug_frame   0x00004ac0       0x50 ../common/lib/libsymm_mpc8313_PtpGpsSe.a(DISnet_gps.o)
 .debug_frame   0x00004b10       0xe0 ../common/lib/libsymm_mpc8313_PtpGpsSe.a(DISrx_gps.o)
 .debug_frame   0x00004bf0      0x178 ../common/lib/libsymm_mpc8313_PtpGpsSe.a(DIStx_gps.o)
 .debug_frame   0x00004d68       0x48 ../common/lib/libsymm_mpc8313_PtpGpsSe.a(MSTmain_gps.o)
 .debug_frame   0x00004db0       0x50 ../common/lib/libsymm_mpc8313_PtpGpsSe.a(MSTsyn_gps.o)
 .debug_frame   0x00004e00       0x50 ../common/lib/libsymm_mpc8313_PtpGpsSe.a(MSTannc_gps.o)
 .debug_frame   0x00004e50       0xe0 ../common/lib/libsymm_mpc8313_PtpGpsSe.a(CIFmain_gps.o)
 .debug_frame   0x00004f30       0x94 ../common/lib/libsymm_mpc8313_PtpGpsSe.a(TSUmain_gps.o)
 .debug_frame   0x00004fc4      0x118 ../common/lib/libsymm_mpc8313_PtpGpsSe.a(FIO_gps.o)
 .debug_frame   0x000050dc       0x28 ../common/lib/libsymm_mpc8313_PtpGpsSe.a(FIOerr_gps.o)
 .debug_frame   0x00005104       0xa8 ../common/lib/libsymm_mpc8313_PtpGpsSe.a(FLTno_gps.o)
 .debug_frame   0x000051ac       0x2c ../common/lib/libsymm_mpc8313_PtpGpsSe.a(tod_gps.o)
 .debug_frame   0x000051d8       0xd0 ../common/lib/libsymm_mpc8313_PtpGpsSe.a(TGT_gps.o)
 .debug_frame   0x000052a8       0xb4 ../common/lib/libsymm_mpc8313_PtpGpsSe.a(SISmpool_gps.o)
 .debug_frame   0x0000535c       0xec ../common/lib/libsymm_mpc8313_PtpGpsSe.a(SISmain_gps.o)
 .debug_frame   0x00005448       0x7c ../common/lib/libsymm_mpc8313_PtpGpsSe.a(SISevent_gps.o)
 .debug_frame   0x000054c4       0xb4 ../common/lib/libsymm_mpc8313_PtpGpsSe.a(SISmbox_gps.o)
 .debug_frame   0x00005578      0x344 ../common/lib/libsymm_mpc8313_PtpGpsSe.a(GOE_gps.o)
 .debug_frame   0x000058bc       0xd0 ../common/lib/libsymm_mpc8313_PtpGpsSe.a(GN_GPS_Task.o)
 .debug_frame   0x0000598c      0x1bc ../common/lib/libsymm_mpc8313_PtpGpsSe.a(UCDmain_gps.o)
 .debug_frame   0x00005b48      0x22c ../common/lib/libsymm_mpc8313_PtpGpsSe.a(PTPmath_gps.o)
 .debug_frame   0x00005d74       0xc0 ../common/lib/libsymm_mpc8313_PtpGpsSe.a(CTLbmc_gps.o)
 .debug_frame   0x00005e34      0x2d8 ../common/lib/libsymm_mpc8313_PtpGpsSe.a(MNTget_gps.o)
 .debug_frame   0x0000610c      0x12c ../common/lib/libsymm_mpc8313_PtpGpsSe.a(NIFrx_gps.o)
 .debug_frame   0x00006238       0x2c ../common/lib/libsymm_mpc8313_PtpGpsSe.a(UCMannc_gps.o)
 .debug_frame   0x00006264       0x48 ../common/lib/libsymm_mpc8313_PtpGpsSe.a(UCMsyn_gps.o)
 .debug_frame   0x000062ac       0x2c ../common/lib/libsymm_mpc8313_PtpGpsSe.a(UCMdel_gps.o)
 .debug_frame   0x000062d8       0x30 ../common/lib/libsymm_mpc8313_PtpGpsSe.a(MSTdel_gps.o)
 .debug_frame   0x00006308       0xb0 ../common/lib/libsymm_mpc8313_PtpGpsSe.a(sc_ptp_mgmt_gps.o)
 .debug_frame   0x000063b8       0x30 ../common/lib/libsymm_mpc8313_PtpGpsSe.a(sc_util_gps.o)
 .debug_frame   0x000063e8       0x20 /opt/sourcery-arm-201203/bin/../lib/gcc/arm-none-linux-gnueabi/4.6.3/libgcc.a(_udivsi3.o)
 .debug_frame   0x00006408       0x20 /opt/sourcery-arm-201203/bin/../lib/gcc/arm-none-linux-gnueabi/4.6.3/libgcc.a(_divsi3.o)
 .debug_frame   0x00006428       0x2c /opt/sourcery-arm-201203/bin/../lib/gcc/arm-none-linux-gnueabi/4.6.3/libgcc.a(_fixdfdi.o)
 .debug_frame   0x00006454       0x30 /opt/sourcery-arm-201203/bin/../lib/gcc/arm-none-linux-gnueabi/4.6.3/libgcc.a(_fixunsdfdi.o)
 .debug_frame   0x00006484       0x54 /opt/sourcery-arm-201203/bin/../lib/gcc/arm-none-linux-gnueabi/4.6.3/libgcc.a(bpabi.o)
 .debug_frame   0x000064d8       0x38 /opt/sourcery-arm-201203/bin/../lib/gcc/arm-none-linux-gnueabi/4.6.3/libgcc.a(_divdi3.o)
 .debug_frame   0x00006510       0x38 /opt/sourcery-arm-201203/bin/../lib/gcc/arm-none-linux-gnueabi/4.6.3/libgcc.a(_udivdi3.o)
 .debug_frame   0x00006548       0x44 /opt/sourcery-arm-201203/bin/../arm-none-linux-gnueabi/libc/usr/lib/libc_nonshared.a(elf-init.oS)

.debug_str      0x00000000    0x10aab
 *(.debug_str)
 .debug_str     0x00000000     0x1088 ./natsemi_util/epl_1588_gps.o
                               0x1151 (size before relaxing)
 .debug_str     0x00001088      0x269 ./timestamper_if/sc_timestamp_gps.o
                                0x5da (size before relaxing)
 .debug_str     0x000012f1      0x512 ./clock_if/sc_clock_if_gps.o
                                0xc69 (size before relaxing)
 .debug_str     0x00001803      0x99c ../common/network_if/sc_network_if_gps.o
                                0xec2 (size before relaxing)
 .debug_str     0x0000219f      0x190 ../common/log/sc_log_gps.o
                                0x458 (size before relaxing)
 .debug_str     0x0000232f     0x1398 ../common/user_if/sc_ui_gps.o
                               0x1937 (size before relaxing)
 .debug_str     0x000036c7      0xa23 ../common/config_if/sc_readconfig_gps.o
                               0x13c7 (size before relaxing)
 .debug_str     0x000040ea      0x104 ../common/chan_processing_if/sc_SSM_handling_gps.o
                                0x465 (size before relaxing)
 .debug_str     0x000041ee     0x1279 ../common/main_gps.o
                               0x1d19 (size before relaxing)
 .debug_str     0x00005467       0x3b ../common/se_if/sc_se_if.o
                                0x2a6 (size before relaxing)
 .debug_str     0x000054a2       0xc1 ../common/gps_if/sc_gps_if.o
                                0x398 (size before relaxing)
 .debug_str     0x00005563      0xbac ../common/lib/libsymm_mpc8313_PtpGpsSe.a(sc_chan_gps.o)
                               0x14ec (size before relaxing)
 .debug_str     0x0000610f       0x1a ../common/lib/libsymm_mpc8313_PtpGpsSe.a(sc_alarms_gps.o)
                                 0x9d (size before relaxing)
 .debug_str     0x00006129     0x248e ../common/lib/libsymm_mpc8313_PtpGpsSe.a(CLK_gps.o)
                               0x2ed3 (size before relaxing)
 .debug_str     0x000085b7      0x77a ../common/lib/libsymm_mpc8313_PtpGpsSe.a(clk_ana_gps.o)
                               0x14d8 (size before relaxing)
 .debug_str     0x00008d31       0x5c ../common/lib/libsymm_mpc8313_PtpGpsSe.a(clk_acq_gps.o)
                                0x2ea (size before relaxing)
 .debug_str     0x00008d8d      0xa0b ../common/lib/libsymm_mpc8313_PtpGpsSe.a(clk_input_gps.o)
                               0x1782 (size before relaxing)
 .debug_str     0x00009798       0xc3 ../common/lib/libsymm_mpc8313_PtpGpsSe.a(clk_main_gps.o)
                               0x1a5c (size before relaxing)
 .debug_str     0x0000985b      0x91a ../common/lib/libsymm_mpc8313_PtpGpsSe.a(sc_ptp_servo_gps.o)
                               0x1662 (size before relaxing)
 .debug_str     0x0000a175      0x55d ../common/lib/libsymm_mpc8313_PtpGpsSe.a(sc_system_gps.o)
                                0xe7c (size before relaxing)
 .debug_str     0x0000a6d2       0xa4 ../common/lib/libsymm_mpc8313_PtpGpsSe.a(DBG_gps.o)
                                0x4aa (size before relaxing)
 .debug_str     0x0000a776      0x779 ../common/lib/libsymm_mpc8313_PtpGpsSe.a(sc_mnt_gps.o)
                                0xb64 (size before relaxing)
 .debug_str     0x0000aeef      0x23b ../common/lib/libsymm_mpc8313_PtpGpsSe.a(THD_gps.o)
                                0x440 (size before relaxing)
 .debug_str     0x0000b12a       0x2f ../common/lib/libsymm_mpc8313_PtpGpsSe.a(sc_gps.o)
                                0x1dc (size before relaxing)
 .debug_str     0x0000b159       0xe3 ../common/lib/libsymm_mpc8313_PtpGpsSe.a(GPS.o)
                                0x367 (size before relaxing)
 .debug_str     0x0000b23c       0x23 ../common/lib/libsymm_mpc8313_PtpGpsSe.a(SE.o)
                                0x281 (size before relaxing)
 .debug_str     0x0000b25f      0xe58 ../common/lib/libsymm_mpc8313_PtpGpsSe.a(PTP_gps.o)
                               0x1410 (size before relaxing)
 .debug_str     0x0000c0b7      0x385 ../common/lib/libsymm_mpc8313_PtpGpsSe.a(CTLmain_gps.o)
                               0x17b7 (size before relaxing)
 .debug_str     0x0000c43c      0x1c1 ../common/lib/libsymm_mpc8313_PtpGpsSe.a(CTLflt_gps.o)
                                0x698 (size before relaxing)
 .debug_str     0x0000c5fd      0x268 ../common/lib/libsymm_mpc8313_PtpGpsSe.a(CTLds_gps.o)
                                0xeb6 (size before relaxing)
 .debug_str     0x0000c865      0x162 ../common/lib/libsymm_mpc8313_PtpGpsSe.a(CLKflt_gps.o)
                                0x580 (size before relaxing)
 .debug_str     0x0000c9c7      0x133 ../common/lib/libsymm_mpc8313_PtpGpsSe.a(SLVdel_gps.o)
                                0xe31 (size before relaxing)
 .debug_str     0x0000cafa       0xa1 ../common/lib/libsymm_mpc8313_PtpGpsSe.a(SLVdel_queue_gps.o)
                                0x2fd (size before relaxing)
 .debug_str     0x0000cb9b      0x154 ../common/lib/libsymm_mpc8313_PtpGpsSe.a(SLVsyn_gps.o)
                                0xe78 (size before relaxing)
 .debug_str     0x0000ccef       0x39 ../common/lib/libsymm_mpc8313_PtpGpsSe.a(SLVmain_gps.o)
                                0x189 (size before relaxing)
 .debug_str     0x0000cd28      0x2f6 ../common/lib/libsymm_mpc8313_PtpGpsSe.a(MNTmain_gps.o)
                               0x1714 (size before relaxing)
 .debug_str     0x0000d01e      0x4da ../common/lib/libsymm_mpc8313_PtpGpsSe.a(MNTapi_gps.o)
                               0x15bd (size before relaxing)
 .debug_str     0x0000d4f8      0x2eb ../common/lib/libsymm_mpc8313_PtpGpsSe.a(MNTmsg_gps.o)
                               0x181d (size before relaxing)
 .debug_str     0x0000d7e3       0xb8 ../common/lib/libsymm_mpc8313_PtpGpsSe.a(NIFmain_gps.o)
                                0x91e (size before relaxing)
 .debug_str     0x0000d89b      0x2ff ../common/lib/libsymm_mpc8313_PtpGpsSe.a(NIFtx_gps.o)
                               0x1022 (size before relaxing)
 .debug_str     0x0000db9a      0x197 ../common/lib/libsymm_mpc8313_PtpGpsSe.a(UCMmain_gps.o)
                                0xf94 (size before relaxing)
 .debug_str     0x0000dd31      0x15c ../common/lib/libsymm_mpc8313_PtpGpsSe.a(DISmain_gps.o)
                                0xb44 (size before relaxing)
 .debug_str     0x0000de8d       0x49 ../common/lib/libsymm_mpc8313_PtpGpsSe.a(DISnet_gps.o)
                                0xda0 (size before relaxing)
 .debug_str     0x0000ded6      0x150 ../common/lib/libsymm_mpc8313_PtpGpsSe.a(DISrx_gps.o)
                               0x13df (size before relaxing)
 .debug_str     0x0000e026       0xee ../common/lib/libsymm_mpc8313_PtpGpsSe.a(DIStx_gps.o)
                               0x133b (size before relaxing)
 .debug_str     0x0000e114       0x3a ../common/lib/libsymm_mpc8313_PtpGpsSe.a(MSTmain_gps.o)
                                0x186 (size before relaxing)
 .debug_str     0x0000e14e       0x73 ../common/lib/libsymm_mpc8313_PtpGpsSe.a(MSTsyn_gps.o)
                                0xd57 (size before relaxing)
 .debug_str     0x0000e1c1       0x50 ../common/lib/libsymm_mpc8313_PtpGpsSe.a(MSTannc_gps.o)
                                0xd53 (size before relaxing)
 .debug_str     0x0000e211       0xf8 ../common/lib/libsymm_mpc8313_PtpGpsSe.a(CIFmain_gps.o)
                                0x37c (size before relaxing)
 .debug_str     0x0000e309       0x93 ../common/lib/libsymm_mpc8313_PtpGpsSe.a(TSUmain_gps.o)
                                0x38e (size before relaxing)
 .debug_str     0x0000e39c      0x21d ../common/lib/libsymm_mpc8313_PtpGpsSe.a(FIO_gps.o)
                                0x929 (size before relaxing)
 .debug_str     0x0000e5b9       0x25 ../common/lib/libsymm_mpc8313_PtpGpsSe.a(FIOerr_gps.o)
                                0x10e (size before relaxing)
 .debug_str     0x0000e5de       0x93 ../common/lib/libsymm_mpc8313_PtpGpsSe.a(FLTno_gps.o)
                                0x51a (size before relaxing)
 .debug_str     0x0000e671       0x63 ../common/lib/libsymm_mpc8313_PtpGpsSe.a(tod_gps.o)
                                0x504 (size before relaxing)
 .debug_str     0x0000e6d4      0x10e ../common/lib/libsymm_mpc8313_PtpGpsSe.a(TGT_gps.o)
                                0x475 (size before relaxing)
 .debug_str     0x0000e7e2      0x16f ../common/lib/libsymm_mpc8313_PtpGpsSe.a(SISmpool_gps.o)
                                0x259 (size before relaxing)
 .debug_str     0x0000e951      0x110 ../common/lib/libsymm_mpc8313_PtpGpsSe.a(SISmain_gps.o)
                                0x226 (size before relaxing)
 .debug_str     0x0000ea61      0x146 ../common/lib/libsymm_mpc8313_PtpGpsSe.a(SISevent_gps.o)
                                0x26a (size before relaxing)
 .debug_str     0x0000eba7      0x502 ../common/lib/libsymm_mpc8313_PtpGpsSe.a(SISmbox_gps.o)
                                0x63d (size before relaxing)
 .debug_str     0x0000f0a9      0x2e3 ../common/lib/libsymm_mpc8313_PtpGpsSe.a(GOE_gps.o)
                                0x9b7 (size before relaxing)
 .debug_str     0x0000f38c      0x5cc ../common/lib/libsymm_mpc8313_PtpGpsSe.a(GN_GPS_Task.o)
                                0x921 (size before relaxing)
 .debug_str     0x0000f958      0x166 ../common/lib/libsymm_mpc8313_PtpGpsSe.a(UCDmain_gps.o)
                               0x1022 (size before relaxing)
 .debug_str     0x0000fabe      0x363 ../common/lib/libsymm_mpc8313_PtpGpsSe.a(PTPmath_gps.o)
                                0x66f (size before relaxing)
 .debug_str     0x0000fe21      0x1ae ../common/lib/libsymm_mpc8313_PtpGpsSe.a(CTLbmc_gps.o)
                               0x132a (size before relaxing)
 .debug_str     0x0000ffcf      0x273 ../common/lib/libsymm_mpc8313_PtpGpsSe.a(MNTget_gps.o)
                                0xc80 (size before relaxing)
 .debug_str     0x00010242       0xd5 ../common/lib/libsymm_mpc8313_PtpGpsSe.a(NIFrx_gps.o)
                                0xcec (size before relaxing)
 .debug_str     0x00010317       0x46 ../common/lib/libsymm_mpc8313_PtpGpsSe.a(UCMannc_gps.o)
                                0xda7 (size before relaxing)
 .debug_str     0x0001035d       0x3f ../common/lib/libsymm_mpc8313_PtpGpsSe.a(UCMsyn_gps.o)
                                0xdc2 (size before relaxing)
 .debug_str     0x0001039c       0x23 ../common/lib/libsymm_mpc8313_PtpGpsSe.a(UCMdel_gps.o)
                                0xcf2 (size before relaxing)
 .debug_str     0x000103bf       0x4c ../common/lib/libsymm_mpc8313_PtpGpsSe.a(MSTdel_gps.o)
                                0xd33 (size before relaxing)
 .debug_str     0x0001040b      0x663 ../common/lib/libsymm_mpc8313_PtpGpsSe.a(sc_ptp_mgmt_gps.o)
                                0xe5b (size before relaxing)
 .debug_str     0x00010a6e       0x3d ../common/lib/libsymm_mpc8313_PtpGpsSe.a(sc_util_gps.o)
                                0x16d (size before relaxing)

.debug_loc      0x00000000    0x111e6
 *(.debug_loc)
 .debug_loc     0x00000000     0x1b33 ./natsemi_util/epl_1588_gps.o
 .debug_loc     0x00001b33       0xb2 ./timestamper_if/sc_timestamp_gps.o
 .debug_loc     0x00001be5      0xbdf ./clock_if/sc_clock_if_gps.o
 .debug_loc     0x000027c4      0xf69 ../common/network_if/sc_network_if_gps.o
 .debug_loc     0x0000372d      0x2de ../common/log/sc_log_gps.o
 .debug_loc     0x00003a0b     0x2a73 ../common/user_if/sc_ui_gps.o
 .debug_loc     0x0000647e     0x1b33 ../common/config_if/sc_readconfig_gps.o
 .debug_loc     0x00007fb1      0x308 ../common/chan_processing_if/sc_SSM_handling_gps.o
 .debug_loc     0x000082b9     0x124a ../common/main_gps.o
 .debug_loc     0x00009503       0x26 ../common/se_if/sc_se_if.o
 .debug_loc     0x00009529      0x13d ../common/gps_if/sc_gps_if.o
 .debug_loc     0x00009666      0xaa8 ../common/lib/libsymm_mpc8313_PtpGpsSe.a(sc_chan_gps.o)
 .debug_loc     0x0000a10e     0x11e0 ../common/lib/libsymm_mpc8313_PtpGpsSe.a(CLK_gps.o)
 .debug_loc     0x0000b2ee      0x528 ../common/lib/libsymm_mpc8313_PtpGpsSe.a(clk_ana_gps.o)
 .debug_loc     0x0000b816       0x2c ../common/lib/libsymm_mpc8313_PtpGpsSe.a(clk_acq_gps.o)
 .debug_loc     0x0000b842      0x108 ../common/lib/libsymm_mpc8313_PtpGpsSe.a(clk_input_gps.o)
 .debug_loc     0x0000b94a      0x6e0 ../common/lib/libsymm_mpc8313_PtpGpsSe.a(sc_ptp_servo_gps.o)
 .debug_loc     0x0000c02a      0x294 ../common/lib/libsymm_mpc8313_PtpGpsSe.a(sc_system_gps.o)
 .debug_loc     0x0000c2be       0xe8 ../common/lib/libsymm_mpc8313_PtpGpsSe.a(DBG_gps.o)
 .debug_loc     0x0000c3a6      0x528 ../common/lib/libsymm_mpc8313_PtpGpsSe.a(sc_mnt_gps.o)
 .debug_loc     0x0000c8ce      0x1b8 ../common/lib/libsymm_mpc8313_PtpGpsSe.a(THD_gps.o)
 .debug_loc     0x0000ca86       0x2c ../common/lib/libsymm_mpc8313_PtpGpsSe.a(sc_gps.o)
 .debug_loc     0x0000cab2       0xdc ../common/lib/libsymm_mpc8313_PtpGpsSe.a(GPS.o)
 .debug_loc     0x0000cb8e       0x58 ../common/lib/libsymm_mpc8313_PtpGpsSe.a(SE.o)
 .debug_loc     0x0000cbe6      0x1e4 ../common/lib/libsymm_mpc8313_PtpGpsSe.a(PTP_gps.o)
 .debug_loc     0x0000cdca      0x268 ../common/lib/libsymm_mpc8313_PtpGpsSe.a(CTLmain_gps.o)
 .debug_loc     0x0000d032      0x134 ../common/lib/libsymm_mpc8313_PtpGpsSe.a(CTLflt_gps.o)
 .debug_loc     0x0000d166      0x3c8 ../common/lib/libsymm_mpc8313_PtpGpsSe.a(CTLds_gps.o)
 .debug_loc     0x0000d52e      0x18c ../common/lib/libsymm_mpc8313_PtpGpsSe.a(CLKflt_gps.o)
 .debug_loc     0x0000d6ba       0x58 ../common/lib/libsymm_mpc8313_PtpGpsSe.a(SLVdel_gps.o)
 .debug_loc     0x0000d712       0x58 ../common/lib/libsymm_mpc8313_PtpGpsSe.a(SLVdel_queue_gps.o)
 .debug_loc     0x0000d76a       0xb0 ../common/lib/libsymm_mpc8313_PtpGpsSe.a(SLVsyn_gps.o)
 .debug_loc     0x0000d81a       0x58 ../common/lib/libsymm_mpc8313_PtpGpsSe.a(SLVmain_gps.o)
 .debug_loc     0x0000d872      0x268 ../common/lib/libsymm_mpc8313_PtpGpsSe.a(MNTmain_gps.o)
 .debug_loc     0x0000dada      0x898 ../common/lib/libsymm_mpc8313_PtpGpsSe.a(MNTapi_gps.o)
 .debug_loc     0x0000e372      0x2ec ../common/lib/libsymm_mpc8313_PtpGpsSe.a(MNTmsg_gps.o)
 .debug_loc     0x0000e65e       0x58 ../common/lib/libsymm_mpc8313_PtpGpsSe.a(NIFmain_gps.o)
 .debug_loc     0x0000e6b6      0x420 ../common/lib/libsymm_mpc8313_PtpGpsSe.a(NIFtx_gps.o)
 .debug_loc     0x0000ead6      0x1b8 ../common/lib/libsymm_mpc8313_PtpGpsSe.a(UCMmain_gps.o)
 .debug_loc     0x0000ec8e       0x84 ../common/lib/libsymm_mpc8313_PtpGpsSe.a(DISmain_gps.o)
 .debug_loc     0x0000ed12       0x58 ../common/lib/libsymm_mpc8313_PtpGpsSe.a(DISnet_gps.o)
 .debug_loc     0x0000ed6a      0x134 ../common/lib/libsymm_mpc8313_PtpGpsSe.a(DISrx_gps.o)
 .debug_loc     0x0000ee9e      0x210 ../common/lib/libsymm_mpc8313_PtpGpsSe.a(DIStx_gps.o)
 .debug_loc     0x0000f0ae       0x58 ../common/lib/libsymm_mpc8313_PtpGpsSe.a(MSTmain_gps.o)
 .debug_loc     0x0000f106       0x58 ../common/lib/libsymm_mpc8313_PtpGpsSe.a(MSTsyn_gps.o)
 .debug_loc     0x0000f15e       0x58 ../common/lib/libsymm_mpc8313_PtpGpsSe.a(MSTannc_gps.o)
 .debug_loc     0x0000f1b6      0x160 ../common/lib/libsymm_mpc8313_PtpGpsSe.a(CIFmain_gps.o)
 .debug_loc     0x0000f316       0xdc ../common/lib/libsymm_mpc8313_PtpGpsSe.a(TSUmain_gps.o)
 .debug_loc     0x0000f3f2      0x1b8 ../common/lib/libsymm_mpc8313_PtpGpsSe.a(FIO_gps.o)
 .debug_loc     0x0000f5aa       0x2c ../common/lib/libsymm_mpc8313_PtpGpsSe.a(FIOerr_gps.o)
 .debug_loc     0x0000f5d6      0x108 ../common/lib/libsymm_mpc8313_PtpGpsSe.a(FLTno_gps.o)
 .debug_loc     0x0000f6de       0x2c ../common/lib/libsymm_mpc8313_PtpGpsSe.a(tod_gps.o)
 .debug_loc     0x0000f70a      0x114 ../common/lib/libsymm_mpc8313_PtpGpsSe.a(TGT_gps.o)
 .debug_loc     0x0000f81e      0x108 ../common/lib/libsymm_mpc8313_PtpGpsSe.a(SISmpool_gps.o)
 .debug_loc     0x0000f926      0x160 ../common/lib/libsymm_mpc8313_PtpGpsSe.a(SISmain_gps.o)
 .debug_loc     0x0000fa86       0xb0 ../common/lib/libsymm_mpc8313_PtpGpsSe.a(SISevent_gps.o)
 .debug_loc     0x0000fb36      0x108 ../common/lib/libsymm_mpc8313_PtpGpsSe.a(SISmbox_gps.o)
 .debug_loc     0x0000fc3e      0x554 ../common/lib/libsymm_mpc8313_PtpGpsSe.a(GOE_gps.o)
 .debug_loc     0x00010192      0x160 ../common/lib/libsymm_mpc8313_PtpGpsSe.a(GN_GPS_Task.o)
 .debug_loc     0x000102f2      0x294 ../common/lib/libsymm_mpc8313_PtpGpsSe.a(UCDmain_gps.o)
 .debug_loc     0x00010586      0x318 ../common/lib/libsymm_mpc8313_PtpGpsSe.a(PTPmath_gps.o)
 .debug_loc     0x0001089e      0x108 ../common/lib/libsymm_mpc8313_PtpGpsSe.a(CTLbmc_gps.o)
 .debug_loc     0x000109a6      0x478 ../common/lib/libsymm_mpc8313_PtpGpsSe.a(MNTget_gps.o)
 .debug_loc     0x00010e1e      0x1b8 ../common/lib/libsymm_mpc8313_PtpGpsSe.a(NIFrx_gps.o)
 .debug_loc     0x00010fd6       0x2c ../common/lib/libsymm_mpc8313_PtpGpsSe.a(UCMannc_gps.o)
 .debug_loc     0x00011002       0x58 ../common/lib/libsymm_mpc8313_PtpGpsSe.a(UCMsyn_gps.o)
 .debug_loc     0x0001105a       0x2c ../common/lib/libsymm_mpc8313_PtpGpsSe.a(UCMdel_gps.o)
 .debug_loc     0x00011086       0x2c ../common/lib/libsymm_mpc8313_PtpGpsSe.a(MSTdel_gps.o)
 .debug_loc     0x000110b2      0x108 ../common/lib/libsymm_mpc8313_PtpGpsSe.a(sc_ptp_mgmt_gps.o)
 .debug_loc     0x000111ba       0x2c ../common/lib/libsymm_mpc8313_PtpGpsSe.a(sc_util_gps.o)

.debug_macinfo
 *(.debug_macinfo)

.debug_weaknames
 *(.debug_weaknames)

.debug_funcnames
 *(.debug_funcnames)

.debug_typenames
 *(.debug_typenames)

.debug_varnames
 *(.debug_varnames)

.debug_pubtypes
 *(.debug_pubtypes)

.debug_ranges   0x00000000     0x2728
 *(.debug_ranges)
 .debug_ranges  0x00000000      0x8b8 ./natsemi_util/epl_1588_gps.o
 .debug_ranges  0x000008b8      0x378 ./clock_if/sc_clock_if_gps.o
 .debug_ranges  0x00000c30      0x208 ../common/network_if/sc_network_if_gps.o
 .debug_ranges  0x00000e38       0x90 ../common/log/sc_log_gps.o
 .debug_ranges  0x00000ec8      0xed8 ../common/user_if/sc_ui_gps.o
 .debug_ranges  0x00001da0      0x3f8 ../common/config_if/sc_readconfig_gps.o
 .debug_ranges  0x00002198      0x190 ../common/chan_processing_if/sc_SSM_handling_gps.o
 .debug_ranges  0x00002328      0x3e8 ../common/main_gps.o
 .debug_ranges  0x00002710       0x18 ../common/lib/libsymm_mpc8313_PtpGpsSe.a(THD_gps.o)

.gnu.attributes
 *(.gnu.attributes)

.note.gnu.arm.ident
 *(.note.gnu.arm.ident)

/DISCARD/
 *(.note.GNU-stack)
 *(.gnu_debuglink)
 *(.gnu.lto_*)
OUTPUT(../../clkservd elf32-littlearm)
